(dp0
S'151'
p1
(lp2
I112
aI113
aI115
aI116
aI122
aI125
aI127
aI129
aI134
aI135
aI141
aI192
aI355
aI361
aI362
aI494
aI497
aI499
aI500
aI511
aI522
aI528
aI547
aI621
aI792
aI910
aI975
aI976
aI1200
aI1239
aI1273
aI1274
aI1276
aI1299
aI1300
aI1303
aI1308
aI1431
aI1432
aI1473
aI1474
aI1477
aI1489
aI1563
aI1564
aI1613
aI1620
aI1624
aI1639
aI1644
aI1652
aI1658
aI1659
aI1661
aI1698
aI1704
aI1706
aI1708
aI1712
aI1714
aI1720
aI1722
aI1727
aI1728
aI1744
aI1812
aI1821
aI1828
aI1832
aI1833
aI1869
aI1879
aI1885
aI1889
aI1937
aI1938
aI1945
aI1956
aI1958
aI2007
aI2008
aI2012
aI2019
aI2020
aI2023
aI2026
aI2061
aI2074
aI2082
aI2103
aI2128
aI2142
aI2147
aI2263
aI2328
aI2341
aI2347
aI2372
aI2480
aI2485
aI2502
aI2519
aI2520
aI2525
aI2526
aI2527
aI2533
aI2567
aI2574
aI2575
aI2577
aI2589
aI2602
aI2606
aI2640
aI2644
aI2671
aI2672
aI2679
aI2680
aI2681
aI2684
aI2687
aI2688
aI2805
aI2806
aI2809
aI2816
aI2822
aI2826
aI2827
aI2829
aI2832
aI2834
aI2835
aI2844
aI2847
aI2853
aI2856
aI2858
aI2860
aI2863
aI2880
aI2884
aI2890
aI2891
aI2892
aI2894
aI2897
aI2899
aI2900
aI2911
aI2912
aI2913
aI2914
aI3310
aI3350
aI3351
aI3352
aI3359
aI3365
aI3429
aI3443
aI3527
aI3528
aI3536
aI3540
aI3541
aI3542
aI3543
aI3544
aI3550
aI3557
aI3602
aI3603
aI3609
aI3610
aI3611
aI3612
aI3643
aI3644
aI3648
aI3654
aI3656
aI3659
aI3660
aI3661
aI4005
aI4006
aI4009
aI4025
aI4028
aI4030
aI4031
aI4032
aI4033
aI4034
aI4035
aI4036
aI4040
aI4045
aI4047
aI4067
aI4075
aI4079
aI4080
aI4081
aI4082
aI4083
aI4084
aI4085
aI4086
aI4087
aI4088
aI4089
aI4091
aI4095
aI4099
aI4103
aI4104
aI4105
aI4106
aI4110
aI4118
aI4119
aI4121
aI4123
aI4124
aI4126
aI4127
aI4128
aI4133
aI4159
aI4164
aI4165
aI4175
aI4176
aI4177
aI4178
aI4180
aI4181
aI4182
aI4183
aI4184
aI4185
aI4188
aI4189
aI4190
aI4191
aI4192
aI4193
aI4194
aI4204
aI4208
aI4214
aI4229
aI4231
aI4232
aI4237
aI4241
aI4242
aI4243
aI4245
aI4246
aI4278
aI4285
aI4286
aI4287
aI4288
aI4292
aI4293
aI4296
aI4297
aI4299
aI4303
aI4304
aI4305
aI4306
aI4307
aI4308
aI4309
aI4310
aI4311
aI4314
aI4315
aI4317
aI4318
aI4320
aI4321
aI4322
aI4326
aI4327
aI4328
aI4360
aI4361
aI4362
aI4363
aI4364
aI4365
aI4366
aI4367
aI4368
aI4369
aI4373
aI4402
aI4410
aI4411
aI4412
aI4415
aI4416
aI4421
aI4422
aI4423
aI4424
aI4425
aI4429
aI4504
aI4510
aI4511
aI4513
aI4514
aI4515
aI4518
aI4520
aI4529
aI4551
aI4559
aI4569
aI4596
aI4601
aI4602
aI4604
aI4605
aI4606
aI4607
aI4616
aI4617
aI4621
aI4627
aI4628
aI4629
aI4631
aI4634
aI4639
aI5182
aI5225
aI5274
aI5289
aI5290
aI5292
aI5295
aI5296
aI5312
aI5318
aI5319
aI5320
aI5324
aI5325
aI5327
aI5331
aI5332
aI5333
aI5334
aI5335
aI5343
aI5344
aI5366
aI5369
aI5372
aI5374
aI5390
aI5391
aI5392
aI5419
aI5420
aI5422
aI5423
aI5424
aI5425
aI5426
aI5427
aI5429
aI5430
aI5434
aI5442
aI5444
aI5445
aI5449
aI5450
aI5451
aI5459
aI5466
aI5468
aI5470
aI5472
aI5474
aI5480
aI5482
aI5484
aI5487
aI5489
aI5503
aI5507
aI5512
aI5514
aI5517
aI5523
aI5524
aI5526
aI5528
aI5529
aI5531
aI5532
aI5533
aI5534
aI5535
aI5543
asS'150'
p3
(lp4
I112
aI113
aI115
aI116
aI122
aI125
aI127
aI129
aI134
aI141
aI192
aI296
aI355
aI361
aI362
aI494
aI497
aI499
aI500
aI511
aI522
aI528
aI547
aI621
aI792
aI910
aI958
aI975
aI976
aI1100
aI1200
aI1239
aI1264
aI1273
aI1274
aI1276
aI1299
aI1300
aI1431
aI1432
aI1474
aI1477
aI1489
aI1563
aI1564
aI1595
aI1613
aI1620
aI1624
aI1639
aI1644
aI1651
aI1652
aI1658
aI1659
aI1661
aI1698
aI1704
aI1706
aI1708
aI1714
aI1720
aI1722
aI1727
aI1728
aI1744
aI1811
aI1812
aI1821
aI1828
aI1833
aI1869
aI1879
aI1885
aI1937
aI1938
aI1945
aI1950
aI1956
aI1958
aI2007
aI2008
aI2012
aI2019
aI2020
aI2023
aI2026
aI2061
aI2074
aI2082
aI2103
aI2128
aI2147
aI2263
aI2326
aI2341
aI2342
aI2347
aI2502
aI2519
aI2520
aI2521
aI2525
aI2526
aI2527
aI2533
aI2567
aI2574
aI2575
aI2640
aI2644
aI2672
aI2680
aI2688
aI2805
aI2806
aI2816
aI2820
aI2826
aI2827
aI2829
aI2834
aI2835
aI2844
aI2847
aI2853
aI2858
aI2859
aI2860
aI2863
aI2880
aI2884
aI2891
aI2895
aI2897
aI2900
aI2905
aI2912
aI2913
aI2914
aI3310
aI3350
aI3351
aI3352
aI3429
aI3443
aI3472
aI3536
aI3541
aI3543
aI3582
aI3604
aI3609
aI3610
aI3612
aI3618
aI3644
aI3646
aI3648
aI3654
aI3656
aI3659
aI3660
aI3661
aI4005
aI4009
aI4023
aI4025
aI4030
aI4031
aI4033
aI4034
aI4035
aI4047
aI4075
aI4081
aI4082
aI4083
aI4087
aI4088
aI4089
aI4091
aI4095
aI4099
aI4103
aI4105
aI4106
aI4110
aI4118
aI4119
aI4121
aI4123
aI4126
aI4127
aI4133
aI4159
aI4161
aI4175
aI4176
aI4177
aI4178
aI4180
aI4181
aI4182
aI4183
aI4184
aI4185
aI4188
aI4189
aI4190
aI4191
aI4192
aI4193
aI4194
aI4204
aI4208
aI4213
aI4214
aI4229
aI4233
aI4237
aI4241
aI4242
aI4243
aI4245
aI4246
aI4257
aI4260
aI4280
aI4281
aI4285
aI4286
aI4287
aI4292
aI4293
aI4295
aI4296
aI4297
aI4299
aI4303
aI4304
aI4305
aI4306
aI4308
aI4309
aI4310
aI4311
aI4314
aI4315
aI4317
aI4318
aI4320
aI4322
aI4323
aI4324
aI4325
aI4326
aI4327
aI4328
aI4331
aI4360
aI4361
aI4362
aI4363
aI4364
aI4365
aI4366
aI4368
aI4369
aI4373
aI4410
aI4412
aI4415
aI4416
aI4420
aI4421
aI4422
aI4423
aI4424
aI4425
aI4429
aI4504
aI4510
aI4511
aI4513
aI4514
aI4515
aI4518
aI4520
aI4529
aI4551
aI4559
aI4569
aI4571
aI4601
aI4606
aI4607
aI4611
aI4619
aI4621
aI4628
aI4629
aI4631
aI4634
aI4639
aI5133
aI5182
aI5183
aI5211
aI5225
aI5289
aI5290
aI5292
aI5295
aI5296
aI5312
aI5318
aI5319
aI5320
aI5324
aI5325
aI5327
aI5331
aI5332
aI5333
aI5334
aI5335
aI5343
aI5344
aI5347
aI5348
aI5390
aI5391
aI5392
aI5419
aI5420
aI5422
aI5423
aI5424
aI5425
aI5426
aI5427
aI5432
aI5433
aI5434
aI5442
aI5445
aI5449
aI5450
aI5451
aI5459
aI5466
aI5468
aI5470
aI5472
aI5474
aI5476
aI5478
aI5480
aI5482
aI5484
aI5487
aI5489
aI5503
aI5504
aI5505
aI5507
aI5512
aI5514
aI5517
aI5523
aI5524
aI5526
aI5528
aI5531
aI5533
aI5534
aI5535
aI5543
asS'152'
p5
(lp6
I112
aI115
aI127
aI129
aI206
aI265
aI367
aI369
aI447
aI807
aI808
aI830
aI836
aI840
aI880
aI1028
aI1100
aI1477
aI1627
aI1639
aI1651
aI1682
aI1698
aI1714
aI1715
aI1743
aI1811
aI1833
aI1869
aI1938
aI1950
aI1978
aI1980
aI2263
aI2270
aI2292
aI2293
aI2313
aI2326
aI2341
aI2377
aI2380
aI2383
aI2478
aI2486
aI2492
aI2493
aI2519
aI2520
aI2521
aI2523
aI2524
aI2527
aI2529
aI2582
aI2668
aI2676
aI2678
aI2689
aI2812
aI2814
aI2815
aI2820
aI2827
aI2835
aI2844
aI2851
aI2862
aI2865
aI2868
aI2882
aI2883
aI2886
aI2888
aI2895
aI2902
aI2906
aI2907
aI2910
aI2919
aI3308
aI3311
aI3364
aI3439
aI3472
aI3476
aI3477
aI3539
aI3569
aI3577
aI3582
aI3584
aI3594
aI3604
aI3618
aI3644
aI3646
aI3658
aI3662
aI3665
aI4002
aI4010
aI4011
aI4016
aI4017
aI4018
aI4019
aI4022
aI4023
aI4024
aI4026
aI4027
aI4029
aI4030
aI4035
aI4038
aI4040
aI4041
aI4044
aI4045
aI4056
aI4059
aI4071
aI4073
aI4092
aI4103
aI4112
aI4113
aI4115
aI4116
aI4117
aI4118
aI4148
aI4160
aI4161
aI4169
aI4170
aI4172
aI4176
aI4180
aI4181
aI4194
aI4198
aI4199
aI4200
aI4206
aI4207
aI4213
aI4216
aI4217
aI4223
aI4231
aI4233
aI4237
aI4250
aI4251
aI4252
aI4254
aI4255
aI4257
aI4259
aI4260
aI4262
aI4264
aI4271
aI4272
aI4276
aI4277
aI4281
aI4282
aI4283
aI4288
aI4289
aI4296
aI4318
aI4323
aI4324
aI4325
aI4329
aI4330
aI4331
aI4336
aI4337
aI4338
aI4339
aI4340
aI4341
aI4343
aI4344
aI4345
aI4346
aI4348
aI4349
aI4351
aI4352
aI4353
aI4354
aI4355
aI4376
aI4377
aI4378
aI4379
aI4380
aI4381
aI4382
aI4383
aI4387
aI4388
aI4389
aI4390
aI4391
aI4392
aI4393
aI4396
aI4397
aI4398
aI4400
aI4401
aI4404
aI4405
aI4407
aI4414
aI4417
aI4418
aI4419
aI4420
aI4421
aI4426
aI4428
aI4510
aI4511
aI4518
aI4523
aI4524
aI4526
aI4527
aI4528
aI4543
aI4551
aI4554
aI4555
aI4556
aI4562
aI4569
aI4571
aI4596
aI4598
aI4599
aI4600
aI4601
aI4602
aI4607
aI4609
aI4611
aI4612
aI4613
aI4614
aI4617
aI4619
aI4624
aI4626
aI5114
aI5133
aI5135
aI5136
aI5153
aI5154
aI5166
aI5167
aI5168
aI5183
aI5187
aI5211
aI5215
aI5229
aI5271
aI5281
aI5294
aI5295
aI5296
aI5312
aI5316
aI5317
aI5318
aI5319
aI5327
aI5331
aI5333
aI5334
aI5335
aI5336
aI5345
aI5359
aI5366
aI5367
aI5368
aI5369
aI5373
aI5374
aI5375
aI5376
aI5377
aI5427
aI5431
aI5432
aI5435
aI5436
aI5437
aI5438
aI5439
aI5441
aI5443
aI5445
aI5446
aI5448
aI5466
aI5468
aI5470
aI5472
aI5474
aI5476
aI5480
aI5482
aI5484
aI5489
aI5495
aI5496
aI5497
aI5498
aI5499
aI5500
aI5501
aI5502
aI5504
aI5505
aI5508
aI5509
aI5510
aI5513
aI5514
aI5516
aI5518
aI5520
aI5521
aI5524
aI5525
aI5536
aI5537
asS'114'
p7
(lp8
I112
aI113
aI115
aI116
aI125
aI127
aI135
aI141
aI265
aI355
aI361
aI500
aI547
aI621
aI792
aI840
aI958
aI975
aI1028
aI1100
aI1239
aI1264
aI1300
aI1308
aI1432
aI1474
aI1477
aI1595
aI1613
aI1620
aI1624
aI1627
aI1644
aI1651
aI1652
aI1659
aI1661
aI1682
aI1698
aI1704
aI1706
aI1708
aI1712
aI1714
aI1715
aI1720
aI1722
aI1727
aI1743
aI1744
aI1811
aI1812
aI1821
aI1828
aI1832
aI1833
aI1879
aI1885
aI1945
aI1956
aI2007
aI2023
aI2061
aI2142
aI2328
aI2341
aI2372
aI2377
aI2380
aI2492
aI2493
aI2502
aI2519
aI2520
aI2521
aI2523
aI2527
aI2529
aI2533
aI2567
aI2606
aI2680
aI2681
aI2688
aI2805
aI2812
aI2816
aI2827
aI2829
aI2858
aI2859
aI2860
aI2863
aI2882
aI2895
aI2897
aI2899
aI2900
aI2905
aI2906
aI2907
aI2910
aI3364
aI3429
aI3472
aI3528
aI3536
aI3539
aI3540
aI3541
aI3543
aI3544
aI3569
aI3604
aI3644
aI3646
aI3658
aI3660
aI3661
aI3662
aI3664
aI4002
aI4005
aI4006
aI4019
aI4022
aI4023
aI4024
aI4025
aI4026
aI4030
aI4031
aI4038
aI4040
aI4041
aI4047
aI4075
aI4087
aI4091
aI4092
aI4099
aI4106
aI4112
aI4117
aI4119
aI4133
aI4148
aI4159
aI4161
aI4175
aI4176
aI4177
aI4178
aI4180
aI4181
aI4182
aI4183
aI4184
aI4185
aI4188
aI4189
aI4190
aI4192
aI4194
aI4198
aI4199
aI4200
aI4204
aI4206
aI4208
aI4209
aI4213
aI4214
aI4216
aI4217
aI4223
aI4229
aI4241
aI4245
aI4246
aI4250
aI4251
aI4252
aI4255
aI4257
aI4260
aI4267
aI4271
aI4272
aI4276
aI4277
aI4278
aI4280
aI4281
aI4283
aI4286
aI4287
aI4288
aI4293
aI4303
aI4304
aI4305
aI4306
aI4308
aI4309
aI4310
aI4311
aI4314
aI4315
aI4317
aI4318
aI4320
aI4321
aI4322
aI4323
aI4324
aI4325
aI4326
aI4327
aI4328
aI4336
aI4337
aI4338
aI4339
aI4340
aI4343
aI4345
aI4346
aI4348
aI4349
aI4351
aI4352
aI4353
aI4354
aI4355
aI4360
aI4361
aI4362
aI4363
aI4364
aI4365
aI4366
aI4367
aI4368
aI4369
aI4373
aI4376
aI4377
aI4378
aI4380
aI4382
aI4383
aI4387
aI4388
aI4389
aI4390
aI4391
aI4392
aI4396
aI4397
aI4398
aI4399
aI4400
aI4401
aI4402
aI4407
aI4410
aI4411
aI4412
aI4413
aI4414
aI4415
aI4416
aI4417
aI4418
aI4419
aI4421
aI4422
aI4424
aI4425
aI4426
aI4428
aI4510
aI4524
aI4528
aI4529
aI4543
aI4556
aI4559
aI4603
aI4606
aI4609
aI4611
aI4620
aI4621
aI4627
aI4628
aI4629
aI4631
aI4639
aI5133
aI5136
aI5154
aI5166
aI5167
aI5182
aI5187
aI5211
aI5215
aI5271
aI5289
aI5290
aI5294
aI5295
aI5296
aI5312
aI5316
aI5317
aI5318
aI5319
aI5320
aI5324
aI5325
aI5327
aI5331
aI5332
aI5333
aI5334
aI5335
aI5336
aI5343
aI5345
aI5347
aI5348
aI5359
aI5374
aI5390
aI5422
aI5423
aI5424
aI5425
aI5426
aI5427
aI5429
aI5430
aI5432
aI5433
aI5434
aI5435
aI5438
aI5439
aI5441
aI5442
aI5443
aI5444
aI5446
aI5466
aI5468
aI5470
aI5472
aI5474
aI5476
aI5478
aI5480
aI5482
aI5484
aI5487
aI5489
aI5496
aI5497
aI5498
aI5500
aI5501
aI5504
aI5507
aI5508
aI5510
aI5513
aI5524
aI5526
aI5529
aI5532
aI5533
aI5534
aI5535
aI5536
aI5537
asS'62'
p9
(lp10
I116
aI485
aI621
aI910
aI1743
aI2007
aI2082
aI2103
aI2128
aI2147
aI2313
aI2328
aI2341
aI2347
aI2492
aI2493
aI2519
aI2520
aI2521
aI2523
aI2527
aI2671
aI2672
aI2688
aI2827
aI2860
aI2862
aI2886
aI3476
aI3477
aI3536
aI3540
aI3569
aI3658
aI4022
aI4023
aI4024
aI4025
aI4026
aI4040
aI4075
aI4087
aI4092
aI4117
aI4121
aI4254
aI4281
aI4282
aI4283
aI4296
aI4337
aI4343
aI4381
aI4405
aI4524
aI4559
aI4562
aI4627
aI5114
aI5133
aI5153
aI5154
aI5166
aI5183
aI5211
aI5215
aI5271
aI5281
aI5294
aI5295
aI5316
aI5317
aI5318
aI5320
aI5334
aI5345
aI5359
aI5374
aI5427
aI5435
aI5448
aI5451
aI5459
aI5466
aI5476
aI5480
aI5487
aI5489
aI5498
aI5508
aI5509
aI5510
aI5517
aI5526
asS'89'
p11
(lp12
I112
aI113
aI115
aI116
aI125
aI127
aI129
aI135
aI141
aI206
aI361
aI362
aI447
aI485
aI497
aI500
aI522
aI528
aI584
aI621
aI792
aI830
aI836
aI880
aI910
aI958
aI975
aI976
aI1028
aI1200
aI1273
aI1274
aI1308
aI1432
aI1473
aI1474
aI1477
aI1595
aI1613
aI1627
aI1639
aI1644
aI1651
aI1652
aI1658
aI1661
aI1682
aI1698
aI1708
aI1712
aI1714
aI1720
aI1727
aI1728
aI1743
aI1744
aI1803
aI1811
aI1812
aI1821
aI1828
aI1832
aI1833
aI1869
aI1879
aI1937
aI1956
aI1958
aI1978
aI1980
aI2007
aI2008
aI2020
aI2023
aI2026
aI2061
aI2128
aI2142
aI2147
aI2263
aI2293
aI2313
aI2326
aI2341
aI2492
aI2502
aI2519
aI2521
aI2523
aI2524
aI2527
aI2529
aI2575
aI2606
aI2668
aI2681
aI2820
aI2822
aI2827
aI2853
aI2856
aI2857
aI2858
aI2859
aI2860
aI2897
aI2905
aI2907
aI2919
aI3429
aI3443
aI3477
aI3527
aI3528
aI3536
aI3540
aI3541
aI3604
aI3610
aI3618
aI3644
aI3646
aI3647
aI3658
aI3661
aI3664
aI3665
aI4002
aI4005
aI4018
aI4022
aI4023
aI4024
aI4025
aI4026
aI4087
aI4092
aI4095
aI4099
aI4103
aI4116
aI4117
aI4118
aI4121
aI4124
aI4159
aI4177
aI4178
aI4180
aI4181
aI4182
aI4184
aI4188
aI4189
aI4190
aI4191
aI4192
aI4193
aI4194
aI4199
aI4200
aI4204
aI4206
aI4213
aI4216
aI4217
aI4223
aI4229
aI4231
aI4233
aI4237
aI4243
aI4250
aI4251
aI4252
aI4254
aI4255
aI4259
aI4260
aI4262
aI4277
aI4280
aI4281
aI4282
aI4283
aI4287
aI4288
aI4292
aI4293
aI4295
aI4297
aI4303
aI4305
aI4306
aI4308
aI4310
aI4311
aI4314
aI4318
aI4321
aI4322
aI4325
aI4330
aI4336
aI4340
aI4349
aI4351
aI4353
aI4354
aI4361
aI4362
aI4363
aI4364
aI4365
aI4368
aI4369
aI4373
aI4376
aI4387
aI4396
aI4399
aI4401
aI4402
aI4415
aI4421
aI4424
aI4428
aI4518
aI4528
aI4551
aI4554
aI4555
aI4556
aI4559
aI4562
aI4569
aI4571
aI4599
aI4611
aI4627
aI4628
aI4629
aI4639
aI5133
aI5153
aI5154
aI5166
aI5183
aI5211
aI5215
aI5271
aI5289
aI5294
aI5295
aI5312
aI5316
aI5317
aI5318
aI5319
aI5320
aI5324
aI5325
aI5327
aI5331
aI5332
aI5333
aI5334
aI5335
aI5343
aI5344
aI5345
aI5359
aI5419
aI5422
aI5424
aI5425
aI5426
aI5427
aI5430
aI5432
aI5435
aI5436
aI5438
aI5442
aI5443
aI5445
aI5446
aI5449
aI5451
aI5466
aI5468
aI5472
aI5474
aI5476
aI5480
aI5482
aI5484
aI5487
aI5489
aI5498
aI5500
aI5502
aI5503
aI5504
aI5505
aI5507
aI5508
aI5509
aI5510
aI5516
aI5523
aI5525
aI5526
aI5535
aI5537
asS'111'
p13
(lp14
I112
aI115
aI116
aI125
aI129
aI134
aI206
aI491
aI494
aI497
aI522
aI621
aI792
aI836
aI1028
aI1276
aI1308
aI1474
aI1613
aI1651
aI1658
aI1715
aI1727
aI1828
aI1956
aI1958
aI2007
aI2012
aI2020
aI2082
aI2270
aI2313
aI2493
aI2502
aI2519
aI2520
aI2521
aI2523
aI2524
aI2525
aI2527
aI2529
aI2533
aI2592
aI2640
aI2806
aI2816
aI2827
aI2834
aI2847
aI2858
aI2900
aI2906
aI2919
aI3310
aI3350
aI3352
aI3364
aI3365
aI3439
aI3544
aI3582
aI3609
aI3610
aI3618
aI3646
aI3647
aI3658
aI4022
aI4024
aI4025
aI4026
aI4028
aI4029
aI4030
aI4041
aI4042
aI4045
aI4047
aI4075
aI4084
aI4087
aI4092
aI4095
aI4103
aI4115
aI4116
aI4117
aI4123
aI4124
aI4126
aI4176
aI4189
aI4193
aI4194
aI4199
aI4200
aI4208
aI4233
aI4243
aI4250
aI4252
aI4287
aI4288
aI4318
aI4322
aI4328
aI4346
aI4348
aI4352
aI4354
aI4387
aI4396
aI4399
aI4510
aI4513
aI4515
aI4551
aI4554
aI4555
aI4556
aI4599
aI4600
aI4607
aI4611
aI4619
aI4627
aI4628
aI5133
aI5136
aI5153
aI5166
aI5182
aI5183
aI5211
aI5215
aI5225
aI5271
aI5274
aI5294
aI5295
aI5296
aI5312
aI5316
aI5317
aI5318
aI5320
aI5331
aI5332
aI5333
aI5334
aI5335
aI5344
aI5345
aI5359
aI5390
aI5391
aI5419
aI5426
aI5427
aI5432
aI5435
aI5436
aI5437
aI5442
aI5443
aI5466
aI5470
aI5472
aI5474
aI5476
aI5480
aI5482
aI5487
aI5489
aI5499
aI5501
aI5502
aI5504
aI5505
aI5507
aI5508
aI5509
aI5517
aI5518
aI5523
aI5524
aI5526
aI5532
asS'66'
p15
(lp16
I112
aI113
aI115
aI116
aI122
aI125
aI127
aI129
aI134
aI135
aI141
aI192
aI206
aI265
aI296
aI355
aI361
aI362
aI367
aI369
aI447
aI485
aI491
aI494
aI497
aI499
aI500
aI511
aI522
aI528
aI547
aI584
aI610
aI621
aI792
aI807
aI808
aI830
aI836
aI840
aI880
aI910
aI958
aI975
aI976
aI1028
aI1100
aI1200
aI1224
aI1239
aI1264
aI1273
aI1274
aI1276
aI1299
aI1300
aI1303
aI1308
aI1431
aI1432
aI1473
aI1474
aI1477
aI1489
aI1563
aI1564
aI1595
aI1613
aI1620
aI1624
aI1627
aI1639
aI1644
aI1651
aI1652
aI1658
aI1659
aI1661
aI1682
aI1698
aI1704
aI1706
aI1708
aI1711
aI1712
aI1714
aI1715
aI1720
aI1722
aI1727
aI1728
aI1743
aI1744
aI1803
aI1811
aI1812
aI1821
aI1828
aI1832
aI1833
aI1869
aI1879
aI1885
aI1889
aI1937
aI1938
aI1945
aI1950
aI1956
aI1958
aI1978
aI1980
aI2007
aI2008
aI2012
aI2019
aI2020
aI2023
aI2026
aI2061
aI2074
aI2082
aI2103
aI2128
aI2142
aI2147
aI2263
aI2270
aI2292
aI2293
aI2313
aI2326
aI2328
aI2341
aI2342
aI2347
aI2372
aI2377
aI2380
aI2383
aI2478
aI2480
aI2483
aI2485
aI2486
aI2492
aI2493
aI2502
aI2519
aI2520
aI2521
aI2523
aI2524
aI2525
aI2526
aI2527
aI2529
aI2533
aI2567
aI2574
aI2575
aI2576
aI2577
aI2582
aI2585
aI2589
aI2592
aI2594
aI2596
aI2599
aI2602
aI2606
aI2640
aI2644
aI2668
aI2671
aI2672
aI2676
aI2678
aI2679
aI2680
aI2681
aI2684
aI2687
aI2688
aI2689
aI2805
aI2806
aI2809
aI2812
aI2814
aI2815
aI2816
aI2820
aI2822
aI2823
aI2826
aI2827
aI2829
aI2832
aI2834
aI2835
aI2842
aI2844
aI2847
aI2850
aI2851
aI2853
aI2856
aI2857
aI2858
aI2859
aI2860
aI2862
aI2863
aI2865
aI2868
aI2880
aI2882
aI2883
aI2884
aI2886
aI2888
aI2890
aI2891
aI2892
aI2894
aI2895
aI2897
aI2899
aI2900
aI2902
aI2905
aI2906
aI2907
aI2910
aI2911
aI2912
aI2913
aI2914
aI2919
aI3308
aI3310
aI3311
aI3350
aI3351
aI3352
aI3359
aI3364
aI3365
aI3415
aI3418
aI3429
aI3436
aI3439
aI3443
aI3472
aI3476
aI3477
aI3527
aI3528
aI3536
aI3539
aI3540
aI3541
aI3542
aI3543
aI3544
aI3550
aI3557
aI3569
aI3577
aI3582
aI3584
aI3594
aI3597
aI3601
aI3602
aI3603
aI3604
aI3609
aI3610
aI3611
aI3612
aI3618
aI3643
aI3644
aI3646
aI3647
aI3648
aI3654
aI3656
aI3658
aI3659
aI3660
aI3661
aI3662
aI3664
aI3665
aI4002
aI4005
aI4006
aI4007
aI4009
aI4010
aI4011
aI4016
aI4017
aI4018
aI4019
aI4022
aI4023
aI4024
aI4025
aI4026
aI4027
aI4028
aI4029
aI4030
aI4031
aI4032
aI4033
aI4034
aI4035
aI4036
aI4038
aI4040
aI4041
aI4042
aI4044
aI4045
aI4047
aI4050
aI4056
aI4059
aI4067
aI4071
aI4072
aI4073
aI4075
aI4079
aI4080
aI4081
aI4082
aI4083
aI4084
aI4085
aI4086
aI4087
aI4088
aI4089
aI4091
aI4092
aI4095
aI4099
aI4103
aI4104
aI4105
aI4106
aI4110
aI4112
aI4113
aI4115
aI4116
aI4117
aI4118
aI4119
aI4121
aI4123
aI4124
aI4126
aI4127
aI4128
aI4133
aI4148
aI4159
aI4160
aI4161
aI4164
aI4165
aI4169
aI4170
aI4171
aI4172
aI4175
aI4176
aI4177
aI4178
aI4180
aI4181
aI4182
aI4183
aI4184
aI4185
aI4188
aI4189
aI4190
aI4191
aI4192
aI4193
aI4194
aI4198
aI4199
aI4200
aI4204
aI4206
aI4207
aI4208
aI4209
aI4213
aI4214
aI4216
aI4217
aI4223
aI4229
aI4231
aI4232
aI4233
aI4237
aI4241
aI4242
aI4243
aI4245
aI4246
aI4250
aI4251
aI4252
aI4254
aI4255
aI4257
aI4259
aI4260
aI4262
aI4263
aI4264
aI4267
aI4271
aI4272
aI4276
aI4277
aI4278
aI4280
aI4281
aI4282
aI4283
aI4285
aI4286
aI4287
aI4288
aI4289
aI4292
aI4293
aI4295
aI4296
aI4297
aI4299
aI4303
aI4304
aI4305
aI4306
aI4307
aI4308
aI4309
aI4310
aI4311
aI4314
aI4315
aI4317
aI4318
aI4320
aI4321
aI4322
aI4323
aI4324
aI4325
aI4326
aI4327
aI4328
aI4329
aI4330
aI4331
aI4336
aI4337
aI4338
aI4339
aI4340
aI4341
aI4343
aI4344
aI4345
aI4346
aI4348
aI4349
aI4351
aI4352
aI4353
aI4354
aI4355
aI4360
aI4361
aI4362
aI4363
aI4364
aI4365
aI4366
aI4367
aI4368
aI4369
aI4373
aI4376
aI4377
aI4378
aI4379
aI4380
aI4381
aI4382
aI4383
aI4387
aI4388
aI4389
aI4390
aI4391
aI4392
aI4393
aI4396
aI4397
aI4398
aI4399
aI4400
aI4401
aI4402
aI4403
aI4404
aI4405
aI4407
aI4410
aI4411
aI4412
aI4413
aI4414
aI4415
aI4416
aI4417
aI4418
aI4419
aI4420
aI4421
aI4422
aI4423
aI4424
aI4425
aI4426
aI4428
aI4429
aI4504
aI4510
aI4511
aI4513
aI4514
aI4515
aI4518
aI4520
aI4523
aI4524
aI4526
aI4527
aI4528
aI4529
aI4543
aI4551
aI4554
aI4555
aI4556
aI4559
aI4562
aI4569
aI4571
aI4596
aI4598
aI4599
aI4600
aI4601
aI4602
aI4603
aI4604
aI4605
aI4606
aI4607
aI4609
aI4611
aI4612
aI4613
aI4614
aI4616
aI4617
aI4619
aI4620
aI4621
aI4622
aI4624
aI4625
aI4626
aI4627
aI4628
aI4629
aI4631
aI4634
aI4639
aI5114
aI5133
aI5135
aI5136
aI5145
aI5153
aI5154
aI5166
aI5167
aI5168
aI5182
aI5183
aI5187
aI5211
aI5215
aI5225
aI5229
aI5254
aI5271
aI5274
aI5281
aI5289
aI5290
aI5292
aI5294
aI5295
aI5296
aI5312
aI5316
aI5317
aI5318
aI5319
aI5320
aI5324
aI5325
aI5327
aI5331
aI5332
aI5333
aI5334
aI5335
aI5336
aI5343
aI5344
aI5345
aI5346
aI5347
aI5348
aI5350
aI5359
aI5365
aI5366
aI5367
aI5368
aI5369
aI5370
aI5372
aI5373
aI5374
aI5375
aI5376
aI5377
aI5390
aI5391
aI5392
aI5419
aI5420
aI5422
aI5423
aI5424
aI5425
aI5426
aI5427
aI5429
aI5430
aI5431
aI5432
aI5433
aI5434
aI5435
aI5436
aI5437
aI5438
aI5439
aI5441
aI5442
aI5443
aI5444
aI5445
aI5446
aI5448
aI5449
aI5450
aI5451
aI5459
aI5466
aI5468
aI5470
aI5472
aI5474
aI5476
aI5478
aI5480
aI5482
aI5484
aI5487
aI5489
aI5495
aI5496
aI5497
aI5498
aI5499
aI5500
aI5501
aI5502
aI5503
aI5504
aI5505
aI5507
aI5508
aI5509
aI5510
aI5512
aI5513
aI5514
aI5516
aI5517
aI5518
aI5520
aI5521
aI5523
aI5524
aI5525
aI5526
aI5528
aI5529
aI5531
aI5532
aI5533
aI5534
aI5535
aI5536
aI5537
aI5543
asS'67'
p17
(lp18
I112
aI113
aI115
aI116
aI122
aI125
aI127
aI129
aI134
aI135
aI141
aI192
aI206
aI265
aI296
aI355
aI361
aI362
aI367
aI369
aI447
aI485
aI491
aI494
aI497
aI499
aI500
aI511
aI522
aI528
aI547
aI584
aI610
aI621
aI792
aI807
aI808
aI830
aI836
aI840
aI880
aI910
aI958
aI975
aI976
aI1028
aI1100
aI1200
aI1224
aI1239
aI1264
aI1273
aI1274
aI1276
aI1299
aI1300
aI1303
aI1308
aI1431
aI1432
aI1473
aI1474
aI1477
aI1489
aI1563
aI1564
aI1595
aI1613
aI1620
aI1624
aI1627
aI1639
aI1644
aI1651
aI1652
aI1658
aI1659
aI1661
aI1682
aI1698
aI1704
aI1706
aI1708
aI1711
aI1712
aI1714
aI1715
aI1720
aI1722
aI1727
aI1728
aI1743
aI1744
aI1803
aI1811
aI1812
aI1821
aI1828
aI1832
aI1833
aI1869
aI1879
aI1885
aI1889
aI1937
aI1938
aI1945
aI1950
aI1956
aI1958
aI1978
aI1980
aI2007
aI2008
aI2012
aI2019
aI2020
aI2023
aI2026
aI2061
aI2074
aI2082
aI2103
aI2128
aI2142
aI2147
aI2263
aI2270
aI2292
aI2293
aI2313
aI2326
aI2328
aI2341
aI2342
aI2347
aI2372
aI2377
aI2380
aI2383
aI2478
aI2480
aI2483
aI2485
aI2486
aI2492
aI2493
aI2502
aI2519
aI2520
aI2521
aI2523
aI2524
aI2525
aI2526
aI2527
aI2529
aI2533
aI2567
aI2574
aI2575
aI2576
aI2577
aI2582
aI2585
aI2589
aI2592
aI2594
aI2596
aI2599
aI2602
aI2606
aI2640
aI2644
aI2668
aI2671
aI2672
aI2676
aI2678
aI2679
aI2680
aI2681
aI2684
aI2687
aI2688
aI2689
aI2805
aI2806
aI2809
aI2812
aI2814
aI2815
aI2816
aI2820
aI2822
aI2823
aI2826
aI2827
aI2829
aI2832
aI2834
aI2835
aI2842
aI2844
aI2847
aI2850
aI2851
aI2853
aI2856
aI2857
aI2858
aI2859
aI2860
aI2862
aI2863
aI2865
aI2868
aI2880
aI2882
aI2883
aI2884
aI2886
aI2888
aI2890
aI2891
aI2892
aI2894
aI2895
aI2897
aI2899
aI2900
aI2902
aI2905
aI2906
aI2907
aI2910
aI2911
aI2912
aI2913
aI2914
aI2919
aI3308
aI3310
aI3311
aI3350
aI3351
aI3352
aI3359
aI3364
aI3365
aI3415
aI3418
aI3429
aI3436
aI3439
aI3443
aI3472
aI3476
aI3477
aI3527
aI3528
aI3536
aI3539
aI3540
aI3541
aI3542
aI3543
aI3544
aI3550
aI3557
aI3569
aI3577
aI3582
aI3584
aI3594
aI3597
aI3601
aI3602
aI3603
aI3604
aI3609
aI3610
aI3611
aI3612
aI3618
aI3643
aI3644
aI3646
aI3647
aI3648
aI3654
aI3656
aI3658
aI3659
aI3660
aI3661
aI3662
aI3664
aI3665
aI4002
aI4005
aI4006
aI4007
aI4009
aI4010
aI4011
aI4016
aI4017
aI4018
aI4019
aI4022
aI4023
aI4024
aI4025
aI4026
aI4027
aI4028
aI4029
aI4030
aI4031
aI4032
aI4033
aI4034
aI4035
aI4036
aI4038
aI4040
aI4041
aI4042
aI4044
aI4045
aI4047
aI4050
aI4056
aI4059
aI4067
aI4071
aI4072
aI4073
aI4075
aI4079
aI4080
aI4081
aI4082
aI4083
aI4084
aI4085
aI4086
aI4087
aI4088
aI4089
aI4091
aI4092
aI4095
aI4099
aI4103
aI4104
aI4105
aI4106
aI4110
aI4112
aI4113
aI4115
aI4116
aI4117
aI4118
aI4119
aI4121
aI4123
aI4124
aI4126
aI4127
aI4128
aI4133
aI4148
aI4159
aI4160
aI4161
aI4164
aI4165
aI4169
aI4170
aI4171
aI4172
aI4175
aI4176
aI4177
aI4178
aI4180
aI4181
aI4182
aI4183
aI4184
aI4185
aI4188
aI4189
aI4190
aI4191
aI4192
aI4193
aI4194
aI4198
aI4199
aI4200
aI4204
aI4206
aI4207
aI4208
aI4209
aI4213
aI4214
aI4216
aI4217
aI4223
aI4229
aI4231
aI4232
aI4233
aI4237
aI4241
aI4242
aI4243
aI4245
aI4246
aI4250
aI4251
aI4252
aI4254
aI4255
aI4257
aI4259
aI4260
aI4262
aI4263
aI4264
aI4267
aI4271
aI4272
aI4276
aI4277
aI4278
aI4280
aI4281
aI4282
aI4283
aI4285
aI4286
aI4287
aI4288
aI4289
aI4292
aI4293
aI4295
aI4296
aI4297
aI4299
aI4303
aI4304
aI4305
aI4306
aI4307
aI4308
aI4309
aI4310
aI4311
aI4314
aI4315
aI4317
aI4318
aI4320
aI4321
aI4322
aI4323
aI4324
aI4325
aI4326
aI4327
aI4328
aI4329
aI4330
aI4331
aI4336
aI4337
aI4338
aI4339
aI4340
aI4341
aI4343
aI4344
aI4345
aI4346
aI4348
aI4349
aI4351
aI4352
aI4353
aI4354
aI4355
aI4360
aI4361
aI4362
aI4363
aI4364
aI4365
aI4366
aI4367
aI4368
aI4369
aI4373
aI4376
aI4377
aI4378
aI4379
aI4380
aI4381
aI4382
aI4383
aI4387
aI4388
aI4389
aI4390
aI4391
aI4392
aI4393
aI4396
aI4397
aI4398
aI4399
aI4400
aI4401
aI4402
aI4403
aI4404
aI4405
aI4407
aI4410
aI4411
aI4412
aI4413
aI4414
aI4415
aI4416
aI4417
aI4418
aI4419
aI4420
aI4421
aI4422
aI4423
aI4424
aI4425
aI4426
aI4428
aI4429
aI4504
aI4510
aI4511
aI4513
aI4514
aI4515
aI4518
aI4520
aI4523
aI4524
aI4526
aI4527
aI4528
aI4529
aI4543
aI4551
aI4554
aI4555
aI4556
aI4559
aI4562
aI4569
aI4571
aI4596
aI4598
aI4599
aI4600
aI4601
aI4602
aI4603
aI4604
aI4605
aI4606
aI4607
aI4609
aI4611
aI4612
aI4613
aI4614
aI4616
aI4617
aI4619
aI4620
aI4621
aI4622
aI4624
aI4625
aI4626
aI4627
aI4628
aI4629
aI4631
aI4634
aI4639
aI5114
aI5133
aI5135
aI5136
aI5145
aI5153
aI5154
aI5166
aI5167
aI5168
aI5182
aI5183
aI5187
aI5211
aI5215
aI5225
aI5229
aI5254
aI5271
aI5274
aI5281
aI5289
aI5290
aI5292
aI5294
aI5295
aI5296
aI5312
aI5316
aI5317
aI5318
aI5319
aI5320
aI5324
aI5325
aI5327
aI5331
aI5332
aI5333
aI5334
aI5335
aI5336
aI5343
aI5344
aI5345
aI5346
aI5347
aI5348
aI5350
aI5359
aI5365
aI5366
aI5367
aI5368
aI5369
aI5370
aI5372
aI5373
aI5374
aI5375
aI5376
aI5377
aI5390
aI5391
aI5392
aI5419
aI5420
aI5422
aI5423
aI5424
aI5425
aI5426
aI5427
aI5429
aI5430
aI5431
aI5432
aI5433
aI5434
aI5435
aI5436
aI5437
aI5438
aI5439
aI5441
aI5442
aI5443
aI5444
aI5445
aI5446
aI5448
aI5449
aI5450
aI5451
aI5459
aI5466
aI5468
aI5470
aI5472
aI5474
aI5476
aI5478
aI5480
aI5482
aI5484
aI5487
aI5489
aI5495
aI5496
aI5497
aI5498
aI5499
aI5500
aI5501
aI5502
aI5503
aI5504
aI5505
aI5507
aI5508
aI5509
aI5510
aI5512
aI5513
aI5514
aI5516
aI5517
aI5518
aI5520
aI5521
aI5523
aI5524
aI5525
aI5526
aI5528
aI5529
aI5531
aI5532
aI5533
aI5534
aI5535
aI5536
aI5537
aI5543
asS'68'
p19
(lp20
I112
aI113
aI115
aI116
aI122
aI125
aI127
aI129
aI134
aI135
aI141
aI192
aI206
aI265
aI296
aI355
aI361
aI362
aI367
aI369
aI447
aI485
aI491
aI494
aI497
aI499
aI500
aI511
aI522
aI528
aI547
aI584
aI610
aI621
aI792
aI807
aI808
aI830
aI836
aI840
aI880
aI910
aI958
aI975
aI976
aI1028
aI1100
aI1200
aI1224
aI1239
aI1264
aI1273
aI1274
aI1276
aI1299
aI1300
aI1303
aI1308
aI1431
aI1432
aI1473
aI1474
aI1477
aI1489
aI1563
aI1564
aI1595
aI1613
aI1620
aI1624
aI1627
aI1639
aI1644
aI1651
aI1652
aI1658
aI1659
aI1661
aI1682
aI1698
aI1704
aI1706
aI1708
aI1711
aI1712
aI1714
aI1715
aI1720
aI1722
aI1727
aI1728
aI1743
aI1744
aI1803
aI1811
aI1812
aI1821
aI1828
aI1832
aI1833
aI1869
aI1879
aI1885
aI1889
aI1937
aI1938
aI1945
aI1950
aI1956
aI1958
aI1978
aI1980
aI2007
aI2008
aI2012
aI2019
aI2020
aI2023
aI2026
aI2061
aI2074
aI2082
aI2103
aI2128
aI2142
aI2147
aI2263
aI2270
aI2292
aI2293
aI2313
aI2326
aI2328
aI2341
aI2342
aI2347
aI2372
aI2377
aI2380
aI2383
aI2478
aI2480
aI2483
aI2485
aI2486
aI2492
aI2493
aI2502
aI2519
aI2520
aI2521
aI2523
aI2524
aI2525
aI2526
aI2527
aI2529
aI2533
aI2567
aI2574
aI2575
aI2576
aI2577
aI2582
aI2585
aI2589
aI2592
aI2594
aI2596
aI2599
aI2602
aI2606
aI2640
aI2644
aI2668
aI2671
aI2672
aI2676
aI2678
aI2679
aI2680
aI2681
aI2684
aI2687
aI2688
aI2689
aI2805
aI2806
aI2809
aI2812
aI2814
aI2815
aI2816
aI2820
aI2822
aI2823
aI2826
aI2827
aI2829
aI2832
aI2834
aI2835
aI2842
aI2844
aI2847
aI2850
aI2851
aI2853
aI2856
aI2857
aI2858
aI2859
aI2860
aI2862
aI2863
aI2865
aI2868
aI2880
aI2882
aI2883
aI2884
aI2886
aI2888
aI2890
aI2891
aI2892
aI2894
aI2895
aI2897
aI2899
aI2900
aI2902
aI2905
aI2906
aI2907
aI2910
aI2911
aI2912
aI2913
aI2914
aI2919
aI3308
aI3310
aI3311
aI3350
aI3351
aI3352
aI3359
aI3364
aI3365
aI3415
aI3418
aI3429
aI3436
aI3439
aI3443
aI3472
aI3476
aI3477
aI3527
aI3528
aI3536
aI3539
aI3540
aI3541
aI3542
aI3543
aI3544
aI3550
aI3557
aI3569
aI3577
aI3582
aI3584
aI3594
aI3597
aI3601
aI3602
aI3603
aI3604
aI3609
aI3610
aI3611
aI3612
aI3618
aI3643
aI3644
aI3646
aI3647
aI3648
aI3654
aI3656
aI3658
aI3659
aI3660
aI3661
aI3662
aI3664
aI3665
aI4002
aI4005
aI4006
aI4007
aI4009
aI4010
aI4011
aI4016
aI4017
aI4018
aI4019
aI4022
aI4023
aI4024
aI4025
aI4026
aI4027
aI4028
aI4029
aI4030
aI4031
aI4032
aI4033
aI4034
aI4035
aI4036
aI4038
aI4040
aI4041
aI4042
aI4044
aI4045
aI4047
aI4050
aI4056
aI4059
aI4067
aI4071
aI4072
aI4073
aI4075
aI4079
aI4080
aI4081
aI4082
aI4083
aI4084
aI4085
aI4086
aI4087
aI4088
aI4089
aI4091
aI4092
aI4095
aI4099
aI4103
aI4104
aI4105
aI4106
aI4110
aI4112
aI4113
aI4115
aI4116
aI4117
aI4118
aI4119
aI4121
aI4123
aI4124
aI4126
aI4127
aI4128
aI4133
aI4148
aI4159
aI4160
aI4161
aI4164
aI4165
aI4169
aI4170
aI4171
aI4172
aI4175
aI4176
aI4177
aI4178
aI4180
aI4181
aI4182
aI4183
aI4184
aI4185
aI4188
aI4189
aI4190
aI4191
aI4192
aI4193
aI4194
aI4198
aI4199
aI4200
aI4204
aI4206
aI4207
aI4208
aI4209
aI4213
aI4214
aI4216
aI4217
aI4223
aI4229
aI4231
aI4232
aI4233
aI4237
aI4241
aI4242
aI4243
aI4245
aI4246
aI4250
aI4251
aI4252
aI4254
aI4255
aI4257
aI4259
aI4260
aI4262
aI4263
aI4264
aI4267
aI4271
aI4272
aI4276
aI4277
aI4278
aI4280
aI4281
aI4282
aI4283
aI4285
aI4286
aI4287
aI4288
aI4289
aI4292
aI4293
aI4295
aI4296
aI4297
aI4299
aI4303
aI4304
aI4305
aI4306
aI4307
aI4308
aI4309
aI4310
aI4311
aI4314
aI4315
aI4317
aI4318
aI4320
aI4321
aI4322
aI4323
aI4324
aI4325
aI4326
aI4327
aI4328
aI4329
aI4330
aI4331
aI4336
aI4337
aI4338
aI4339
aI4340
aI4341
aI4343
aI4344
aI4345
aI4346
aI4348
aI4349
aI4351
aI4352
aI4353
aI4354
aI4355
aI4360
aI4361
aI4362
aI4363
aI4364
aI4365
aI4366
aI4367
aI4368
aI4369
aI4373
aI4376
aI4377
aI4378
aI4379
aI4380
aI4381
aI4382
aI4383
aI4387
aI4388
aI4389
aI4390
aI4391
aI4392
aI4393
aI4396
aI4397
aI4398
aI4399
aI4400
aI4401
aI4402
aI4403
aI4404
aI4405
aI4407
aI4410
aI4411
aI4412
aI4413
aI4414
aI4415
aI4416
aI4417
aI4418
aI4419
aI4420
aI4421
aI4422
aI4423
aI4424
aI4425
aI4426
aI4428
aI4429
aI4504
aI4510
aI4511
aI4513
aI4514
aI4515
aI4518
aI4520
aI4523
aI4524
aI4526
aI4527
aI4528
aI4529
aI4543
aI4551
aI4554
aI4555
aI4556
aI4559
aI4562
aI4569
aI4571
aI4596
aI4598
aI4599
aI4600
aI4601
aI4602
aI4603
aI4604
aI4605
aI4606
aI4607
aI4609
aI4611
aI4612
aI4613
aI4614
aI4616
aI4617
aI4619
aI4620
aI4621
aI4622
aI4624
aI4625
aI4626
aI4627
aI4628
aI4629
aI4631
aI4634
aI4639
aI5114
aI5133
aI5135
aI5136
aI5145
aI5153
aI5154
aI5166
aI5167
aI5168
aI5182
aI5183
aI5187
aI5211
aI5215
aI5225
aI5229
aI5254
aI5271
aI5274
aI5281
aI5289
aI5290
aI5292
aI5294
aI5295
aI5296
aI5312
aI5316
aI5317
aI5318
aI5319
aI5320
aI5324
aI5325
aI5327
aI5331
aI5332
aI5333
aI5334
aI5335
aI5336
aI5343
aI5344
aI5345
aI5346
aI5347
aI5348
aI5350
aI5359
aI5365
aI5366
aI5367
aI5368
aI5369
aI5370
aI5372
aI5373
aI5374
aI5375
aI5376
aI5377
aI5390
aI5391
aI5392
aI5419
aI5420
aI5422
aI5423
aI5424
aI5425
aI5426
aI5427
aI5429
aI5430
aI5431
aI5432
aI5433
aI5434
aI5435
aI5436
aI5437
aI5438
aI5439
aI5441
aI5442
aI5443
aI5444
aI5445
aI5446
aI5448
aI5449
aI5450
aI5451
aI5459
aI5466
aI5468
aI5470
aI5472
aI5474
aI5476
aI5478
aI5480
aI5482
aI5484
aI5487
aI5489
aI5495
aI5496
aI5497
aI5498
aI5499
aI5500
aI5501
aI5502
aI5503
aI5504
aI5505
aI5507
aI5508
aI5509
aI5510
aI5512
aI5513
aI5514
aI5516
aI5517
aI5518
aI5520
aI5521
aI5523
aI5524
aI5525
aI5526
aI5528
aI5529
aI5531
aI5532
aI5533
aI5534
aI5535
aI5536
aI5537
aI5543
asS'69'
p21
(lp22
I113
aI115
aI127
aI135
aI141
aI355
aI361
aI362
aI367
aI369
aI497
aI500
aI522
aI792
aI840
aI910
aI1100
aI1308
aI1432
aI1477
aI1613
aI1627
aI1639
aI1644
aI1652
aI1658
aI1659
aI1661
aI1682
aI1698
aI1714
aI1715
aI1722
aI1743
aI1744
aI1821
aI2026
aI2142
aI2341
aI2377
aI2383
aI2493
aI2502
aI2521
aI2523
aI2524
aI2527
aI2529
aI2681
aI2827
aI2829
aI2844
aI2856
aI2891
aI2899
aI2900
aI2906
aI2911
aI3429
aI3472
aI3528
aI3536
aI3539
aI3542
aI3543
aI3604
aI3612
aI3618
aI3644
aI3646
aI3647
aI3654
aI3664
aI4002
aI4011
aI4016
aI4019
aI4023
aI4024
aI4026
aI4029
aI4030
aI4031
aI4040
aI4041
aI4047
aI4087
aI4095
aI4104
aI4112
aI4116
aI4117
aI4118
aI4119
aI4121
aI4133
aI4148
aI4159
aI4161
aI4164
aI4188
aI4190
aI4191
aI4192
aI4229
aI4231
aI4232
aI4237
aI4241
aI4242
aI4243
aI4250
aI4251
aI4252
aI4254
aI4255
aI4257
aI4259
aI4260
aI4287
aI4288
aI4303
aI4305
aI4306
aI4308
aI4309
aI4310
aI4311
aI4314
aI4315
aI4318
aI4320
aI4322
aI4323
aI4324
aI4325
aI4326
aI4327
aI4328
aI4331
aI4336
aI4337
aI4338
aI4339
aI4340
aI4343
aI4346
aI4349
aI4351
aI4352
aI4353
aI4354
aI4355
aI4362
aI4363
aI4365
aI4366
aI4367
aI4368
aI4369
aI4376
aI4377
aI4378
aI4380
aI4381
aI4382
aI4383
aI4387
aI4388
aI4389
aI4390
aI4392
aI4396
aI4398
aI4399
aI4400
aI4401
aI4407
aI4417
aI4518
aI4524
aI4543
aI4569
aI4571
aI4598
aI4607
aI4617
aI4620
aI4626
aI4627
aI4628
aI4639
aI5136
aI5166
aI5187
aI5289
aI5290
aI5294
aI5296
aI5312
aI5316
aI5317
aI5318
aI5319
aI5320
aI5325
aI5327
aI5331
aI5332
aI5333
aI5334
aI5335
aI5344
aI5345
aI5359
aI5390
aI5424
aI5425
aI5426
aI5430
aI5435
aI5438
aI5441
aI5442
aI5443
aI5445
aI5446
aI5466
aI5468
aI5474
aI5476
aI5480
aI5484
aI5489
aI5496
aI5497
aI5498
aI5500
aI5503
aI5504
aI5505
aI5507
aI5524
aI5526
aI5535
aI5537
asS'63'
p23
(lp24
I112
aI113
aI115
aI116
aI369
aI621
aI792
aI830
aI836
aI910
aI1028
aI1200
aI1239
aI1276
aI1431
aI1613
aI1711
aI1743
aI1744
aI1821
aI1869
aI1958
aI2007
aI2012
aI2026
aI2147
aI2263
aI2270
aI2293
aI2313
aI2326
aI2341
aI2347
aI2377
aI2492
aI2493
aI2519
aI2521
aI2523
aI2524
aI2525
aI2527
aI2680
aI2688
aI2806
aI2827
aI2847
aI2858
aI2880
aI2886
aI2919
aI3350
aI3352
aI3476
aI3477
aI3528
aI3536
aI3540
aI3541
aI3542
aI3577
aI3656
aI3658
aI3661
aI4019
aI4022
aI4023
aI4024
aI4025
aI4026
aI4030
aI4033
aI4035
aI4036
aI4075
aI4089
aI4092
aI4095
aI4099
aI4103
aI4116
aI4117
aI4127
aI4148
aI4172
aI4193
aI4198
aI4243
aI4250
aI4252
aI4277
aI4281
aI4283
aI4286
aI4287
aI4297
aI4299
aI4305
aI4349
aI4354
aI4389
aI4392
aI4415
aI4511
aI4551
aI4556
aI4562
aI4627
aI4628
aI4629
aI5133
aI5153
aI5154
aI5166
aI5182
aI5183
aI5211
aI5271
aI5274
aI5294
aI5295
aI5296
aI5312
aI5316
aI5317
aI5318
aI5320
aI5331
aI5332
aI5333
aI5334
aI5335
aI5345
aI5359
aI5373
aI5375
aI5392
aI5426
aI5427
aI5435
aI5442
aI5443
aI5446
aI5448
aI5451
aI5466
aI5474
aI5476
aI5480
aI5482
aI5487
aI5489
aI5496
aI5497
aI5502
aI5507
aI5510
aI5517
aI5523
aI5526
asS'141'
p25
(lp26
I112
aI265
aI547
aI792
aI910
aI958
aI1028
aI1100
aI1200
aI1308
aI1595
aI1613
aI1620
aI1624
aI1644
aI1652
aI1659
aI1682
aI1698
aI1704
aI1706
aI1708
aI1714
aI1720
aI1722
aI1728
aI1743
aI1803
aI1885
aI1945
aI2007
aI2008
aI2023
aI2026
aI2061
aI2142
aI2341
aI2372
aI2493
aI2502
aI2519
aI2520
aI2521
aI2523
aI2527
aI2529
aI2567
aI2681
aI2688
aI2805
aI2820
aI2844
aI2856
aI2859
aI2863
aI2895
aI2897
aI2905
aI2906
aI2907
aI3308
aI3350
aI3352
aI3429
aI3472
aI3528
aI3536
aI3539
aI3540
aI3543
aI3544
aI3569
aI3609
aI3658
aI3660
aI3661
aI4002
aI4005
aI4006
aI4022
aI4023
aI4024
aI4025
aI4026
aI4030
aI4031
aI4038
aI4040
aI4041
aI4047
aI4087
aI4088
aI4089
aI4091
aI4092
aI4099
aI4112
aI4119
aI4133
aI4148
aI4159
aI4164
aI4175
aI4176
aI4177
aI4178
aI4188
aI4189
aI4190
aI4192
aI4193
aI4194
aI4198
aI4199
aI4200
aI4204
aI4207
aI4208
aI4217
aI4223
aI4229
aI4237
aI4245
aI4246
aI4250
aI4251
aI4252
aI4254
aI4255
aI4263
aI4272
aI4276
aI4277
aI4278
aI4280
aI4281
aI4283
aI4297
aI4303
aI4304
aI4305
aI4306
aI4308
aI4309
aI4310
aI4311
aI4314
aI4315
aI4317
aI4318
aI4320
aI4321
aI4322
aI4323
aI4324
aI4325
aI4326
aI4327
aI4328
aI4331
aI4336
aI4337
aI4338
aI4339
aI4340
aI4343
aI4346
aI4348
aI4349
aI4351
aI4352
aI4353
aI4354
aI4355
aI4360
aI4361
aI4362
aI4363
aI4364
aI4365
aI4366
aI4367
aI4368
aI4369
aI4373
aI4376
aI4377
aI4378
aI4380
aI4382
aI4383
aI4387
aI4388
aI4389
aI4390
aI4391
aI4392
aI4396
aI4397
aI4398
aI4399
aI4400
aI4401
aI4402
aI4407
aI4410
aI4411
aI4412
aI4414
aI4419
aI4420
aI4421
aI4422
aI4424
aI4425
aI4518
aI4520
aI4524
aI4529
aI4543
aI4559
aI4628
aI4631
aI4639
aI5133
aI5154
aI5166
aI5167
aI5211
aI5215
aI5271
aI5290
aI5294
aI5295
aI5296
aI5312
aI5316
aI5317
aI5319
aI5320
aI5324
aI5325
aI5327
aI5331
aI5332
aI5334
aI5335
aI5336
aI5343
aI5345
aI5347
aI5348
aI5359
aI5374
aI5390
aI5419
aI5420
aI5424
aI5425
aI5426
aI5427
aI5429
aI5431
aI5432
aI5433
aI5435
aI5436
aI5438
aI5439
aI5441
aI5442
aI5443
aI5444
aI5466
aI5468
aI5470
aI5472
aI5474
aI5476
aI5480
aI5482
aI5484
aI5496
aI5497
aI5498
aI5500
aI5501
aI5507
aI5508
aI5510
aI5526
aI5529
aI5533
aI5534
aI5535
aI5536
aI5537
asS'120'
p27
(lp28
I192
aI367
aI369
aI499
aI500
aI610
aI792
aI807
aI808
aI958
aI1276
aI1303
aI1613
aI1624
aI1639
aI1651
aI1706
aI1708
aI1711
aI1712
aI1715
aI1728
aI1833
aI1885
aI2007
aI2026
aI2074
aI2263
aI2347
aI2478
aI2480
aI2483
aI2486
aI2492
aI2493
aI2502
aI2519
aI2520
aI2521
aI2523
aI2524
aI2525
aI2526
aI2527
aI2529
aI2533
aI2582
aI2585
aI2589
aI2599
aI2602
aI2640
aI2644
aI2680
aI2688
aI2820
aI2832
aI2857
aI2858
aI2860
aI2862
aI2888
aI2895
aI2905
aI2906
aI2907
aI2912
aI2914
aI2919
aI3308
aI3310
aI3350
aI3364
aI3365
aI3415
aI3418
aI3429
aI3477
aI3539
aI3540
aI3544
aI3557
aI3569
aI3582
aI3584
aI3594
aI3597
aI3601
aI3602
aI3609
aI3610
aI3618
aI3654
aI3658
aI4006
aI4007
aI4010
aI4022
aI4023
aI4024
aI4025
aI4026
aI4029
aI4030
aI4040
aI4041
aI4047
aI4050
aI4056
aI4059
aI4067
aI4071
aI4072
aI4075
aI4079
aI4080
aI4081
aI4083
aI4084
aI4085
aI4086
aI4087
aI4091
aI4095
aI4106
aI4110
aI4116
aI4117
aI4119
aI4121
aI4128
aI4148
aI4160
aI4161
aI4171
aI4178
aI4188
aI4190
aI4192
aI4193
aI4198
aI4204
aI4208
aI4209
aI4214
aI4237
aI4250
aI4251
aI4252
aI4255
aI4262
aI4264
aI4276
aI4280
aI4281
aI4282
aI4283
aI4292
aI4303
aI4305
aI4318
aI4324
aI4329
aI4331
aI4336
aI4337
aI4340
aI4341
aI4344
aI4345
aI4346
aI4348
aI4352
aI4353
aI4354
aI4355
aI4365
aI4366
aI4380
aI4381
aI4387
aI4388
aI4389
aI4390
aI4392
aI4396
aI4400
aI4401
aI4403
aI4405
aI4407
aI4413
aI4425
aI4518
aI4524
aI4526
aI4598
aI4600
aI4627
aI4628
aI4631
aI5133
aI5135
aI5136
aI5145
aI5153
aI5166
aI5183
aI5187
aI5211
aI5254
aI5271
aI5292
aI5294
aI5295
aI5296
aI5316
aI5317
aI5318
aI5319
aI5320
aI5325
aI5331
aI5332
aI5333
aI5334
aI5335
aI5336
aI5345
aI5359
aI5365
aI5366
aI5367
aI5369
aI5370
aI5372
aI5373
aI5376
aI5377
aI5390
aI5391
aI5392
aI5419
aI5425
aI5426
aI5427
aI5429
aI5430
aI5432
aI5435
aI5442
aI5443
aI5446
aI5459
aI5466
aI5468
aI5470
aI5472
aI5474
aI5476
aI5480
aI5482
aI5487
aI5489
aI5495
aI5496
aI5497
aI5498
aI5501
aI5503
aI5507
aI5508
aI5513
aI5521
aI5525
aI5526
aI5534
aI5536
asS'98'
p29
(lp30
I113
aI115
aI127
aI135
aI141
aI355
aI361
aI362
aI367
aI369
aI497
aI500
aI522
aI792
aI840
aI910
aI1100
aI1308
aI1432
aI1477
aI1613
aI1627
aI1639
aI1644
aI1652
aI1658
aI1659
aI1661
aI1682
aI1698
aI1714
aI1715
aI1722
aI1743
aI1744
aI1821
aI2026
aI2142
aI2341
aI2377
aI2383
aI2493
aI2502
aI2521
aI2523
aI2524
aI2527
aI2529
aI2681
aI2827
aI2829
aI2844
aI2856
aI2891
aI2899
aI2900
aI2906
aI2911
aI3429
aI3472
aI3528
aI3536
aI3539
aI3542
aI3543
aI3604
aI3612
aI3618
aI3644
aI3646
aI3647
aI3654
aI3664
aI4002
aI4011
aI4016
aI4019
aI4023
aI4024
aI4026
aI4029
aI4030
aI4031
aI4040
aI4041
aI4047
aI4087
aI4095
aI4104
aI4112
aI4116
aI4117
aI4118
aI4119
aI4121
aI4133
aI4148
aI4159
aI4161
aI4164
aI4188
aI4190
aI4191
aI4192
aI4229
aI4231
aI4232
aI4237
aI4241
aI4242
aI4243
aI4250
aI4251
aI4252
aI4254
aI4255
aI4257
aI4259
aI4260
aI4287
aI4288
aI4303
aI4305
aI4306
aI4308
aI4309
aI4310
aI4311
aI4314
aI4315
aI4318
aI4320
aI4322
aI4323
aI4324
aI4325
aI4326
aI4327
aI4328
aI4331
aI4336
aI4337
aI4338
aI4339
aI4340
aI4343
aI4346
aI4349
aI4351
aI4352
aI4353
aI4354
aI4355
aI4362
aI4363
aI4365
aI4366
aI4367
aI4368
aI4369
aI4376
aI4377
aI4378
aI4380
aI4381
aI4382
aI4383
aI4387
aI4388
aI4389
aI4390
aI4392
aI4396
aI4398
aI4399
aI4400
aI4401
aI4407
aI4417
aI4518
aI4524
aI4543
aI4569
aI4571
aI4598
aI4607
aI4617
aI4620
aI4626
aI4627
aI4628
aI4639
aI5136
aI5166
aI5187
aI5289
aI5290
aI5294
aI5296
aI5312
aI5316
aI5317
aI5318
aI5319
aI5320
aI5325
aI5327
aI5331
aI5332
aI5333
aI5334
aI5335
aI5344
aI5345
aI5359
aI5390
aI5424
aI5425
aI5426
aI5430
aI5435
aI5438
aI5441
aI5442
aI5443
aI5445
aI5446
aI5466
aI5468
aI5474
aI5476
aI5480
aI5484
aI5489
aI5496
aI5497
aI5498
aI5500
aI5503
aI5504
aI5505
aI5507
aI5524
aI5526
aI5535
aI5537
aI112
aI113
aI115
aI116
aI125
aI127
aI135
aI141
aI265
aI355
aI361
aI500
aI547
aI621
aI792
aI840
aI958
aI975
aI1028
aI1100
aI1239
aI1264
aI1300
aI1308
aI1432
aI1474
aI1477
aI1595
aI1613
aI1620
aI1624
aI1627
aI1644
aI1651
aI1652
aI1659
aI1661
aI1682
aI1698
aI1704
aI1706
aI1708
aI1712
aI1714
aI1715
aI1720
aI1722
aI1727
aI1743
aI1744
aI1811
aI1812
aI1821
aI1828
aI1832
aI1833
aI1879
aI1885
aI1945
aI1956
aI2007
aI2023
aI2061
aI2142
aI2328
aI2341
aI2372
aI2377
aI2380
aI2492
aI2493
aI2502
aI2519
aI2520
aI2521
aI2523
aI2527
aI2529
aI2533
aI2567
aI2606
aI2680
aI2681
aI2688
aI2805
aI2812
aI2816
aI2827
aI2829
aI2858
aI2859
aI2860
aI2863
aI2882
aI2895
aI2897
aI2899
aI2900
aI2905
aI2906
aI2907
aI2910
aI3364
aI3429
aI3472
aI3528
aI3536
aI3539
aI3540
aI3541
aI3543
aI3544
aI3569
aI3604
aI3644
aI3646
aI3658
aI3660
aI3661
aI3662
aI3664
aI4002
aI4005
aI4006
aI4019
aI4022
aI4023
aI4024
aI4025
aI4026
aI4030
aI4031
aI4038
aI4040
aI4041
aI4047
aI4075
aI4087
aI4091
aI4092
aI4099
aI4106
aI4112
aI4117
aI4119
aI4133
aI4148
aI4159
aI4161
aI4175
aI4176
aI4177
aI4178
aI4180
aI4181
aI4182
aI4183
aI4184
aI4185
aI4188
aI4189
aI4190
aI4192
aI4194
aI4198
aI4199
aI4200
aI4204
aI4206
aI4208
aI4209
aI4213
aI4214
aI4216
aI4217
aI4223
aI4229
aI4241
aI4245
aI4246
aI4250
aI4251
aI4252
aI4255
aI4257
aI4260
aI4267
aI4271
aI4272
aI4276
aI4277
aI4278
aI4280
aI4281
aI4283
aI4286
aI4287
aI4288
aI4293
aI4303
aI4304
aI4305
aI4306
aI4308
aI4309
aI4310
aI4311
aI4314
aI4315
aI4317
aI4318
aI4320
aI4321
aI4322
aI4323
aI4324
aI4325
aI4326
aI4327
aI4328
aI4336
aI4337
aI4338
aI4339
aI4340
aI4343
aI4345
aI4346
aI4348
aI4349
aI4351
aI4352
aI4353
aI4354
aI4355
aI4360
aI4361
aI4362
aI4363
aI4364
aI4365
aI4366
aI4367
aI4368
aI4369
aI4373
aI4376
aI4377
aI4378
aI4380
aI4382
aI4383
aI4387
aI4388
aI4389
aI4390
aI4391
aI4392
aI4396
aI4397
aI4398
aI4399
aI4400
aI4401
aI4402
aI4407
aI4410
aI4411
aI4412
aI4413
aI4414
aI4415
aI4416
aI4417
aI4418
aI4419
aI4421
aI4422
aI4424
aI4425
aI4426
aI4428
aI4510
aI4524
aI4528
aI4529
aI4543
aI4556
aI4559
aI4603
aI4606
aI4609
aI4611
aI4620
aI4621
aI4627
aI4628
aI4629
aI4631
aI4639
aI5133
aI5136
aI5154
aI5166
aI5167
aI5182
aI5187
aI5211
aI5215
aI5271
aI5289
aI5290
aI5294
aI5295
aI5296
aI5312
aI5316
aI5317
aI5318
aI5319
aI5320
aI5324
aI5325
aI5327
aI5331
aI5332
aI5333
aI5334
aI5335
aI5336
aI5343
aI5345
aI5347
aI5348
aI5359
aI5374
aI5390
aI5422
aI5423
aI5424
aI5425
aI5426
aI5427
aI5429
aI5430
aI5432
aI5433
aI5434
aI5435
aI5438
aI5439
aI5441
aI5442
aI5443
aI5444
aI5446
aI5466
aI5468
aI5470
aI5472
aI5474
aI5476
aI5478
aI5480
aI5482
aI5484
aI5487
aI5489
aI5496
aI5497
aI5498
aI5500
aI5501
aI5504
aI5507
aI5508
aI5510
aI5513
aI5524
aI5526
aI5529
aI5532
aI5533
aI5534
aI5535
aI5536
aI5537
asS'122'
p31
(lp32
I113
aI135
aI584
aI976
aI1620
aI1698
aI1704
aI1708
aI1938
aI2263
aI2502
aI2679
aI2815
aI2822
aI2827
aI2829
aI2835
aI2842
aI2844
aI2850
aI2853
aI2911
aI3618
aI4005
aI4016
aI4028
aI4034
aI4042
aI4045
aI4087
aI4159
aI4161
aI4175
aI4176
aI4177
aI4178
aI4204
aI4206
aI4207
aI4216
aI4412
aI4511
aI4571
aI4596
aI4601
aI4602
aI4603
aI4606
aI4612
aI4621
aI4624
aI4625
aI4626
aI5296
aI5324
aI5419
aI5431
aI5472
aI5474
aI5482
aI5484
aI5505
aI5507
aI5524
asS'74'
p33
(lp34
I2493
aI2521
aI2672
aI2859
aI2895
aI2906
aI2910
aI3609
aI3658
aI4022
aI4026
aI4087
aI4092
aI4250
aI4251
aI4280
aI5133
aI5153
aI5154
aI5166
aI5167
aI5271
aI5294
aI5295
aI5316
aI5317
aI5345
aI5347
aI5359
aI5374
aI5427
aI5435
aI5443
aI5508
aI5509
aI5510
asS'73'
p35
(lp36
I113
aI115
aI134
aI792
aI958
aI1224
aI1489
aI1563
aI1564
aI1595
aI1644
aI1659
aI1722
aI1812
aI1956
aI2142
aI2502
aI2521
aI2526
aI2668
aI2857
aI2859
aI2895
aI2897
aI2902
aI2905
aI3418
aI3550
aI3643
aI3648
aI4022
aI4023
aI4032
aI4087
aI4104
aI4105
aI4106
aI4263
aI4280
aI4282
aI4639
aI5145
aI5154
aI5168
aI5182
aI5225
aI5254
aI5274
aI5295
aI5312
aI5325
aI5333
aI5334
aI5346
aI5347
aI5348
aI5350
aI5422
aI5424
aI5427
aI5507
aI5510
asS'72'
p37
(lp38
I113
aI116
aI122
aI125
aI127
aI141
aI192
aI485
aI491
aI499
aI500
aI528
aI547
aI610
aI621
aI792
aI830
aI910
aI958
aI1028
aI1100
aI1224
aI1264
aI1299
aI1300
aI1303
aI1308
aI1431
aI1432
aI1474
aI1563
aI1564
aI1595
aI1613
aI1624
aI1644
aI1651
aI1652
aI1659
aI1706
aI1714
aI1722
aI1727
aI1743
aI1811
aI1812
aI1821
aI1828
aI1833
aI1885
aI1937
aI1956
aI1958
aI2007
aI2023
aI2026
aI2061
aI2074
aI2128
aI2142
aI2147
aI2263
aI2293
aI2328
aI2341
aI2347
aI2372
aI2377
aI2383
aI2492
aI2493
aI2502
aI2519
aI2520
aI2521
aI2523
aI2524
aI2525
aI2526
aI2527
aI2529
aI2567
aI2574
aI2576
aI2577
aI2582
aI2596
aI2599
aI2606
aI2640
aI2644
aI2668
aI2671
aI2672
aI2679
aI2680
aI2681
aI2684
aI2688
aI2689
aI2805
aI2816
aI2827
aI2832
aI2834
aI2844
aI2847
aI2851
aI2856
aI2857
aI2859
aI2860
aI2863
aI2865
aI2868
aI2880
aI2884
aI2886
aI2888
aI2891
aI2892
aI2894
aI2895
aI2897
aI2899
aI2900
aI2902
aI2905
aI2906
aI2907
aI2910
aI2911
aI2912
aI2914
aI2919
aI3350
aI3351
aI3352
aI3359
aI3364
aI3418
aI3429
aI3443
aI3472
aI3477
aI3527
aI3528
aI3536
aI3539
aI3540
aI3541
aI3542
aI3543
aI3544
aI3550
aI3557
aI3582
aI3594
aI3601
aI3609
aI3610
aI3611
aI3612
aI3618
aI3643
aI3646
aI3648
aI3656
aI3658
aI3659
aI3660
aI3661
aI4006
aI4007
aI4009
aI4011
aI4016
aI4019
aI4022
aI4023
aI4024
aI4025
aI4026
aI4030
aI4031
aI4032
aI4033
aI4040
aI4041
aI4047
aI4059
aI4067
aI4073
aI4075
aI4079
aI4080
aI4083
aI4084
aI4086
aI4087
aI4088
aI4089
aI4091
aI4092
aI4099
aI4105
aI4106
aI4110
aI4115
aI4116
aI4117
aI4119
aI4121
aI4128
aI4133
aI4148
aI4161
aI4164
aI4165
aI4169
aI4170
aI4171
aI4172
aI4182
aI4183
aI4184
aI4185
aI4188
aI4189
aI4190
aI4191
aI4192
aI4198
aI4199
aI4200
aI4213
aI4229
aI4241
aI4242
aI4243
aI4245
aI4246
aI4250
aI4251
aI4252
aI4259
aI4263
aI4264
aI4271
aI4276
aI4278
aI4280
aI4281
aI4282
aI4285
aI4292
aI4293
aI4296
aI4297
aI4303
aI4304
aI4305
aI4306
aI4307
aI4308
aI4309
aI4310
aI4311
aI4314
aI4315
aI4317
aI4318
aI4320
aI4321
aI4322
aI4323
aI4324
aI4325
aI4326
aI4327
aI4328
aI4329
aI4330
aI4331
aI4336
aI4337
aI4338
aI4339
aI4340
aI4341
aI4343
aI4344
aI4345
aI4346
aI4348
aI4349
aI4351
aI4352
aI4353
aI4354
aI4355
aI4360
aI4361
aI4362
aI4363
aI4364
aI4365
aI4366
aI4367
aI4368
aI4369
aI4373
aI4376
aI4377
aI4378
aI4379
aI4380
aI4381
aI4382
aI4383
aI4387
aI4388
aI4389
aI4390
aI4391
aI4392
aI4393
aI4396
aI4397
aI4398
aI4399
aI4400
aI4401
aI4402
aI4403
aI4407
aI4415
aI4416
aI4417
aI4418
aI4425
aI4426
aI4429
aI4510
aI4523
aI4524
aI4526
aI4527
aI4528
aI4529
aI4559
aI4569
aI4605
aI4626
aI4627
aI4628
aI4629
aI4631
aI4634
aI4639
aI5114
aI5133
aI5135
aI5136
aI5145
aI5153
aI5154
aI5166
aI5167
aI5168
aI5182
aI5183
aI5187
aI5211
aI5215
aI5254
aI5271
aI5274
aI5281
aI5289
aI5290
aI5294
aI5295
aI5296
aI5312
aI5316
aI5317
aI5320
aI5325
aI5327
aI5331
aI5332
aI5333
aI5334
aI5335
aI5336
aI5343
aI5345
aI5346
aI5347
aI5348
aI5359
aI5365
aI5366
aI5367
aI5368
aI5370
aI5372
aI5373
aI5374
aI5375
aI5376
aI5377
aI5390
aI5391
aI5422
aI5423
aI5424
aI5425
aI5426
aI5427
aI5430
aI5435
aI5441
aI5442
aI5443
aI5448
aI5449
aI5450
aI5466
aI5474
aI5476
aI5480
aI5482
aI5484
aI5487
aI5489
aI5495
aI5496
aI5497
aI5498
aI5499
aI5500
aI5501
aI5504
aI5505
aI5507
aI5508
aI5509
aI5510
aI5512
aI5516
aI5517
aI5520
aI5521
aI5523
aI5526
aI5535
aI5536
asS'93'
p39
(lp40
I112
aI113
aI115
aI116
aI122
aI125
aI129
aI134
aI135
aI141
aI206
aI296
aI355
aI361
aI362
aI369
aI485
aI491
aI494
aI497
aI511
aI522
aI528
aI547
aI621
aI792
aI830
aI836
aI840
aI880
aI910
aI976
aI1200
aI1264
aI1273
aI1274
aI1276
aI1308
aI1431
aI1432
aI1474
aI1477
aI1489
aI1563
aI1564
aI1613
aI1620
aI1624
aI1644
aI1651
aI1652
aI1658
aI1659
aI1661
aI1682
aI1698
aI1706
aI1711
aI1712
aI1720
aI1722
aI1727
aI1728
aI1743
aI1744
aI1803
aI1811
aI1821
aI1828
aI1833
aI1869
aI1879
aI1937
aI1938
aI1945
aI1956
aI1958
aI1978
aI1980
aI2012
aI2020
aI2026
aI2074
aI2082
aI2103
aI2128
aI2142
aI2147
aI2263
aI2270
aI2292
aI2293
aI2313
aI2326
aI2328
aI2341
aI2342
aI2347
aI2372
aI2478
aI2483
aI2485
aI2492
aI2493
aI2502
aI2519
aI2520
aI2521
aI2523
aI2524
aI2525
aI2526
aI2527
aI2529
aI2533
aI2567
aI2574
aI2575
aI2577
aI2585
aI2594
aI2599
aI2602
aI2606
aI2668
aI2671
aI2672
aI2680
aI2684
aI2688
aI2689
aI2805
aI2806
aI2814
aI2820
aI2826
aI2827
aI2832
aI2834
aI2835
aI2844
aI2847
aI2851
aI2853
aI2857
aI2858
aI2860
aI2862
aI2880
aI2884
aI2886
aI2888
aI2895
aI2897
aI2900
aI2902
aI2910
aI2919
aI3308
aI3310
aI3311
aI3350
aI3351
aI3352
aI3415
aI3418
aI3436
aI3439
aI3472
aI3476
aI3477
aI3536
aI3540
aI3541
aI3543
aI3544
aI3577
aI3582
aI3584
aI3602
aI3604
aI3609
aI3610
aI3611
aI3612
aI3618
aI3643
aI3644
aI3646
aI3647
aI3656
aI3658
aI3660
aI3661
aI3662
aI3664
aI4002
aI4006
aI4009
aI4011
aI4016
aI4022
aI4023
aI4024
aI4025
aI4026
aI4029
aI4030
aI4031
aI4032
aI4033
aI4034
aI4035
aI4038
aI4040
aI4041
aI4045
aI4047
aI4050
aI4059
aI4067
aI4072
aI4073
aI4075
aI4081
aI4084
aI4086
aI4087
aI4088
aI4089
aI4092
aI4095
aI4099
aI4112
aI4113
aI4115
aI4116
aI4117
aI4118
aI4119
aI4123
aI4124
aI4126
aI4133
aI4159
aI4160
aI4161
aI4169
aI4170
aI4176
aI4178
aI4180
aI4181
aI4182
aI4183
aI4184
aI4185
aI4188
aI4189
aI4190
aI4191
aI4192
aI4193
aI4194
aI4199
aI4200
aI4204
aI4207
aI4208
aI4209
aI4213
aI4214
aI4229
aI4231
aI4232
aI4237
aI4241
aI4242
aI4243
aI4245
aI4251
aI4252
aI4254
aI4257
aI4260
aI4262
aI4264
aI4267
aI4271
aI4272
aI4276
aI4281
aI4282
aI4283
aI4287
aI4289
aI4295
aI4296
aI4297
aI4306
aI4308
aI4309
aI4310
aI4311
aI4314
aI4315
aI4317
aI4318
aI4320
aI4321
aI4322
aI4326
aI4327
aI4328
aI4329
aI4336
aI4337
aI4340
aI4343
aI4344
aI4345
aI4348
aI4349
aI4351
aI4352
aI4353
aI4354
aI4355
aI4360
aI4361
aI4362
aI4367
aI4368
aI4369
aI4373
aI4376
aI4380
aI4381
aI4387
aI4388
aI4389
aI4390
aI4392
aI4396
aI4398
aI4404
aI4407
aI4411
aI4413
aI4415
aI4417
aI4418
aI4419
aI4420
aI4421
aI4422
aI4423
aI4424
aI4425
aI4426
aI4429
aI4510
aI4511
aI4513
aI4514
aI4515
aI4518
aI4524
aI4528
aI4529
aI4543
aI4551
aI4554
aI4555
aI4556
aI4559
aI4569
aI4571
aI4598
aI4599
aI4600
aI4601
aI4602
aI4605
aI4606
aI4607
aI4612
aI4613
aI4620
aI4625
aI4626
aI4627
aI4628
aI4629
aI4634
aI4639
aI5114
aI5133
aI5135
aI5153
aI5154
aI5166
aI5167
aI5168
aI5182
aI5183
aI5211
aI5274
aI5281
aI5289
aI5290
aI5292
aI5294
aI5295
aI5296
aI5312
aI5316
aI5317
aI5318
aI5319
aI5320
aI5325
aI5327
aI5331
aI5332
aI5333
aI5334
aI5335
aI5336
aI5343
aI5344
aI5345
aI5359
aI5365
aI5366
aI5367
aI5368
aI5369
aI5370
aI5372
aI5373
aI5374
aI5375
aI5376
aI5377
aI5390
aI5392
aI5422
aI5423
aI5424
aI5425
aI5426
aI5427
aI5429
aI5430
aI5431
aI5432
aI5435
aI5438
aI5441
aI5442
aI5443
aI5444
aI5445
aI5446
aI5450
aI5451
aI5459
aI5466
aI5468
aI5470
aI5472
aI5474
aI5476
aI5478
aI5480
aI5482
aI5484
aI5487
aI5489
aI5495
aI5496
aI5497
aI5498
aI5499
aI5501
aI5502
aI5503
aI5504
aI5505
aI5507
aI5508
aI5509
aI5510
aI5512
aI5513
aI5516
aI5517
aI5518
aI5520
aI5523
aI5524
aI5525
aI5526
aI5529
aI5531
aI5533
aI5535
aI5537
aI5543
asS'101'
p41
(lp42
I3584
aI1028
aI4103
aI3594
aI3415
aI2061
aI2574
aI2575
aI5136
aI2577
aI3602
aI3603
aI2582
aI4119
aI2585
aI2074
aI3611
aI4124
aI2589
aI4128
aI2594
aI547
aI2596
aI4133
aI2599
aI2567
aI5168
aI5423
aI4148
aI2103
aI4341
aI1595
aI4159
aI4160
aI5187
aI3654
aI3656
aI4169
aI3660
aI2640
aI5390
aI2644
aI4181
aI4184
aI4185
aI5211
aI2576
aI610
aI4198
aI3601
aI4204
aI621
aI4206
aI4208
aI1879
aI4214
aI5312
aI5254
aI1624
aI2668
aI4631
aI4067
aI5229
aI1627
aI4245
aI4246
aI5145
aI5274
aI4634
aI4254
aI4263
aI4264
aI5289
aI5290
aI4420
aI4271
aI1712
aI4277
aI4278
aI4280
aI3612
aI4283
aI1711
aI4287
aI192
aI2592
aI5317
aI1950
aI4295
aI1224
aI4297
aI1743
aI1744
aI4306
aI4307
aI5336
aI4315
aI4389
aI4320
aI5345
aI4322
aI4323
aI5348
aI5429
aI4326
aI807
aI3310
aI3311
aI4337
aI4338
aI2293
aI4343
aI4344
aI4345
aI4346
aI4348
aI2020
aI4351
aI4352
aI4353
aI4355
aI2823
aI4360
aI4361
aI2826
aI4363
aI4366
aI4367
aI4056
aI2834
aI1299
aI5422
aI2326
aI1303
aI4379
aI4380
aI4381
aI4382
aI4383
aI4387
aI4388
aI3365
aI2342
aI4391
aI808
aI4393
aI2858
aI2859
aI4396
aI4397
aI4398
aI4399
aI4401
aI4402
aI4403
aI4404
aI4405
aI5430
aI2868
aI5434
aI4411
aI4413
aI4415
aI4416
aI4418
aI4419
aI2372
aI2886
aI5448
aI4428
aI5346
aI5444
aI2895
aI5347
aI2902
aI5433
aI2905
aI3418
aI1889
aI355
aI3609
aI5350
aI5478
aI1937
aI4071
aI3436
aI1682
aI3439
aI1274
aI5498
aI5183
aI3610
aI4331
aI5512
aI5516
aI5517
aI4504
aI3476
aI5525
aI5529
aI5528
aI1276
aI5533
aI5534
aI5535
aI5536
aI5446
aI3543
aI4007
aI1945
aI4009
aI4010
aI4523
aI4524
aI4526
aI4527
aI4017
aI4018
aI2485
aI2486
aI5419
aI2492
aI958
aI2805
aI1477
aI3527
aI975
aI4050
aI3539
aI3541
aI1273
aI2008
aI3647
aI4059
aI2012
aI2525
aI3664
aI2019
aI2857
aI4006
aI2023
aI4072
aI2812
aI4081
aI4088
aI5114
aI1706
aI511
asS'106'
p43
(lp44
I112
aI113
aI115
aI116
aI122
aI125
aI127
aI129
aI134
aI135
aI141
aI192
aI206
aI265
aI296
aI355
aI361
aI362
aI367
aI369
aI447
aI485
aI491
aI494
aI497
aI499
aI500
aI511
aI522
aI528
aI547
aI584
aI610
aI621
aI792
aI807
aI808
aI830
aI836
aI840
aI880
aI910
aI958
aI975
aI976
aI1028
aI1100
aI1200
aI1224
aI1239
aI1264
aI1273
aI1274
aI1276
aI1299
aI1300
aI1303
aI1308
aI1431
aI1432
aI1473
aI1474
aI1477
aI1489
aI1563
aI1564
aI1595
aI1613
aI1620
aI1624
aI1627
aI1639
aI1644
aI1651
aI1652
aI1658
aI1659
aI1661
aI1682
aI1698
aI1704
aI1706
aI1708
aI1711
aI1712
aI1714
aI1715
aI1720
aI1722
aI1727
aI1728
aI1743
aI1744
aI1803
aI1811
aI1812
aI1821
aI1828
aI1832
aI1833
aI1869
aI1879
aI1885
aI1889
aI1937
aI1938
aI1945
aI1950
aI1956
aI1958
aI1978
aI1980
aI2007
aI2008
aI2012
aI2019
aI2020
aI2023
aI2026
aI2061
aI2074
aI2082
aI2103
aI2128
aI2142
aI2147
aI2263
aI2270
aI2292
aI2293
aI2313
aI2326
aI2328
aI2341
aI2342
aI2347
aI2372
aI2377
aI2380
aI2383
aI2478
aI2480
aI2483
aI2485
aI2486
aI2492
aI2493
aI2502
aI2519
aI2520
aI2521
aI2523
aI2524
aI2525
aI2526
aI2527
aI2529
aI2533
aI2567
aI2574
aI2575
aI2576
aI2577
aI2582
aI2585
aI2589
aI2592
aI2594
aI2596
aI2599
aI2602
aI2606
aI2640
aI2644
aI2668
aI2671
aI2672
aI2676
aI2678
aI2679
aI2680
aI2681
aI2684
aI2687
aI2688
aI2689
aI2805
aI2806
aI2809
aI2812
aI2814
aI2815
aI2816
aI2820
aI2822
aI2823
aI2826
aI2827
aI2829
aI2832
aI2834
aI2835
aI2842
aI2844
aI2847
aI2850
aI2851
aI2853
aI2856
aI2857
aI2858
aI2859
aI2860
aI2862
aI2863
aI2865
aI2868
aI2880
aI2882
aI2883
aI2884
aI2886
aI2888
aI2890
aI2891
aI2892
aI2894
aI2895
aI2897
aI2899
aI2900
aI2902
aI2905
aI2906
aI2907
aI2910
aI2911
aI2912
aI2913
aI2914
aI2919
aI3308
aI3310
aI3311
aI3350
aI3351
aI3352
aI3359
aI3364
aI3365
aI3415
aI3418
aI3429
aI3436
aI3439
aI3443
aI3472
aI3476
aI3477
aI3527
aI3528
aI3536
aI3539
aI3540
aI3541
aI3542
aI3543
aI3544
aI3550
aI3557
aI3569
aI3577
aI3582
aI3584
aI3594
aI3597
aI3601
aI3602
aI3603
aI3604
aI3609
aI3610
aI3611
aI3612
aI3618
aI3643
aI3644
aI3646
aI3647
aI3648
aI3654
aI3656
aI3658
aI3659
aI3660
aI3661
aI3662
aI3664
aI3665
aI4002
aI4005
aI4006
aI4007
aI4009
aI4010
aI4011
aI4016
aI4017
aI4018
aI4019
aI4022
aI4023
aI4024
aI4025
aI4026
aI4027
aI4028
aI4029
aI4030
aI4031
aI4032
aI4033
aI4034
aI4035
aI4036
aI4038
aI4040
aI4041
aI4042
aI4044
aI4045
aI4047
aI4050
aI4056
aI4059
aI4067
aI4071
aI4072
aI4073
aI4075
aI4079
aI4080
aI4081
aI4082
aI4083
aI4084
aI4085
aI4086
aI4087
aI4088
aI4089
aI4091
aI4092
aI4095
aI4099
aI4103
aI4104
aI4105
aI4106
aI4110
aI4112
aI4113
aI4115
aI4116
aI4117
aI4118
aI4119
aI4121
aI4123
aI4124
aI4126
aI4127
aI4128
aI4133
aI4148
aI4159
aI4160
aI4161
aI4164
aI4165
aI4169
aI4170
aI4171
aI4172
aI4175
aI4176
aI4177
aI4178
aI4180
aI4181
aI4182
aI4183
aI4184
aI4185
aI4188
aI4189
aI4190
aI4191
aI4192
aI4193
aI4194
aI4198
aI4199
aI4200
aI4204
aI4206
aI4207
aI4208
aI4209
aI4213
aI4214
aI4216
aI4217
aI4223
aI4229
aI4231
aI4232
aI4233
aI4237
aI4241
aI4242
aI4243
aI4245
aI4246
aI4250
aI4251
aI4252
aI4254
aI4255
aI4257
aI4259
aI4260
aI4262
aI4263
aI4264
aI4267
aI4271
aI4272
aI4276
aI4277
aI4278
aI4280
aI4281
aI4282
aI4283
aI4285
aI4286
aI4287
aI4288
aI4289
aI4292
aI4293
aI4295
aI4296
aI4297
aI4299
aI4303
aI4304
aI4305
aI4306
aI4307
aI4308
aI4309
aI4310
aI4311
aI4314
aI4315
aI4317
aI4318
aI4320
aI4321
aI4322
aI4323
aI4324
aI4325
aI4326
aI4327
aI4328
aI4329
aI4330
aI4331
aI4336
aI4337
aI4338
aI4339
aI4340
aI4341
aI4343
aI4344
aI4345
aI4346
aI4348
aI4349
aI4351
aI4352
aI4353
aI4354
aI4355
aI4360
aI4361
aI4362
aI4363
aI4364
aI4365
aI4366
aI4367
aI4368
aI4369
aI4373
aI4376
aI4377
aI4378
aI4379
aI4380
aI4381
aI4382
aI4383
aI4387
aI4388
aI4389
aI4390
aI4391
aI4392
aI4393
aI4396
aI4397
aI4398
aI4399
aI4400
aI4401
aI4402
aI4403
aI4404
aI4405
aI4407
aI4410
aI4411
aI4412
aI4413
aI4414
aI4415
aI4416
aI4417
aI4418
aI4419
aI4420
aI4421
aI4422
aI4423
aI4424
aI4425
aI4426
aI4428
aI4429
aI4504
aI4510
aI4511
aI4513
aI4514
aI4515
aI4518
aI4520
aI4523
aI4524
aI4526
aI4527
aI4528
aI4529
aI4543
aI4551
aI4554
aI4555
aI4556
aI4559
aI4562
aI4569
aI4571
aI4596
aI4598
aI4599
aI4600
aI4601
aI4602
aI4603
aI4604
aI4605
aI4606
aI4607
aI4609
aI4611
aI4612
aI4613
aI4614
aI4616
aI4617
aI4619
aI4620
aI4621
aI4622
aI4624
aI4625
aI4626
aI4627
aI4628
aI4629
aI4631
aI4634
aI4639
aI5114
aI5133
aI5135
aI5136
aI5145
aI5153
aI5154
aI5166
aI5167
aI5168
aI5182
aI5183
aI5187
aI5211
aI5215
aI5225
aI5229
aI5254
aI5271
aI5274
aI5281
aI5289
aI5290
aI5292
aI5294
aI5295
aI5296
aI5312
aI5316
aI5317
aI5318
aI5319
aI5320
aI5324
aI5325
aI5327
aI5331
aI5332
aI5333
aI5334
aI5335
aI5336
aI5343
aI5344
aI5345
aI5346
aI5347
aI5348
aI5350
aI5359
aI5365
aI5366
aI5367
aI5368
aI5369
aI5370
aI5372
aI5373
aI5374
aI5375
aI5376
aI5377
aI5390
aI5391
aI5392
aI5419
aI5420
aI5422
aI5423
aI5424
aI5425
aI5426
aI5427
aI5429
aI5430
aI5431
aI5432
aI5433
aI5434
aI5435
aI5436
aI5437
aI5438
aI5439
aI5441
aI5442
aI5443
aI5444
aI5445
aI5446
aI5448
aI5449
aI5450
aI5451
aI5459
aI5466
aI5468
aI5470
aI5472
aI5474
aI5476
aI5478
aI5480
aI5482
aI5484
aI5487
aI5489
aI5495
aI5496
aI5497
aI5498
aI5499
aI5500
aI5501
aI5502
aI5503
aI5504
aI5505
aI5507
aI5508
aI5509
aI5510
aI5512
aI5513
aI5514
aI5516
aI5517
aI5518
aI5520
aI5521
aI5523
aI5524
aI5525
aI5526
aI5528
aI5529
aI5531
aI5532
aI5533
aI5534
aI5535
aI5536
aI5537
aI5543
asS'107'
p45
(lp46
I2480
aI2492
aI2493
aI2520
aI2525
aI2527
aI2680
aI2688
aI2820
aI2919
aI3350
aI3365
aI3528
aI3542
aI3543
aI3569
aI3656
aI4022
aI4024
aI4025
aI4026
aI4040
aI4047
aI4073
aI4075
aI4087
aI4092
aI4095
aI4110
aI4115
aI4121
aI4128
aI4133
aI4198
aI4237
aI4252
aI4264
aI4277
aI4281
aI4282
aI4303
aI4306
aI4308
aI4309
aI4311
aI4314
aI4337
aI4365
aI4367
aI4407
aI4417
aI4518
aI4523
aI4528
aI4627
aI5133
aI5153
aI5166
aI5211
aI5215
aI5271
aI5294
aI5295
aI5296
aI5317
aI5318
aI5319
aI5320
aI5331
aI5336
aI5345
aI5359
aI5365
aI5391
aI5427
aI5443
aI5474
aI5484
aI5487
aI5497
aI5498
aI5499
aI5508
aI5509
aI5526
aI5535
asS'59'
p47
(lp48
I141
aI192
aI485
aI610
aI836
aI1613
aI1624
aI2074
aI2293
aI2341
aI2347
aI2480
aI2492
aI2493
aI2502
aI2519
aI2520
aI2521
aI2523
aI2524
aI2525
aI2526
aI2527
aI2533
aI2576
aI2640
aI2644
aI2681
aI2688
aI2689
aI2856
aI2858
aI2919
aI3429
aI3477
aI3527
aI3536
aI3539
aI3540
aI3541
aI3544
aI3557
aI3601
aI3660
aI4009
aI4022
aI4023
aI4024
aI4025
aI4026
aI4030
aI4040
aI4041
aI4047
aI4067
aI4073
aI4075
aI4079
aI4080
aI4081
aI4084
aI4087
aI4092
aI4095
aI4106
aI4110
aI4116
aI4117
aI4119
aI4121
aI4148
aI4164
aI4171
aI4172
aI4189
aI4200
aI4214
aI4252
aI4271
aI4278
aI4280
aI4281
aI4282
aI4292
aI4296
aI4305
aI4337
aI4343
aI4351
aI4354
aI4355
aI4381
aI4387
aI4388
aI4396
aI4400
aI4401
aI4403
aI4417
aI4418
aI4429
aI4524
aI4528
aI4626
aI4627
aI4628
aI4631
aI5133
aI5135
aI5136
aI5153
aI5154
aI5166
aI5167
aI5187
aI5215
aI5271
aI5289
aI5294
aI5295
aI5296
aI5316
aI5317
aI5318
aI5320
aI5325
aI5331
aI5332
aI5336
aI5345
aI5359
aI5366
aI5373
aI5374
aI5376
aI5377
aI5390
aI5426
aI5427
aI5443
aI5449
aI5451
aI5459
aI5466
aI5476
aI5480
aI5482
aI5487
aI5489
aI5497
aI5498
aI5507
aI5508
aI5509
aI5510
aI5512
aI5514
aI5516
aI5526
aI5536
asS'61'
p49
(lp50
I116
aI129
aI141
aI192
aI485
aI491
aI494
aI547
aI610
aI830
aI836
aI840
aI975
aI1200
aI1264
aI1274
aI1308
aI1432
aI1613
aI1624
aI1644
aI1652
aI1659
aI1708
aI1714
aI1722
aI1743
aI1812
aI1821
aI1885
aI1889
aI2008
aI2012
aI2019
aI2026
aI2061
aI2074
aI2128
aI2293
aI2328
aI2341
aI2347
aI2372
aI2480
aI2492
aI2493
aI2502
aI2519
aI2520
aI2521
aI2523
aI2524
aI2525
aI2526
aI2527
aI2533
aI2574
aI2576
aI2585
aI2596
aI2640
aI2644
aI2671
aI2672
aI2681
aI2688
aI2689
aI2816
aI2827
aI2832
aI2834
aI2847
aI2856
aI2857
aI2858
aI2859
aI2860
aI2862
aI2865
aI2880
aI2886
aI2895
aI2897
aI2899
aI2900
aI2906
aI2910
aI2919
aI3350
aI3351
aI3352
aI3364
aI3418
aI3429
aI3443
aI3476
aI3477
aI3527
aI3528
aI3536
aI3539
aI3540
aI3541
aI3542
aI3543
aI3544
aI3550
aI3557
aI3601
aI3609
aI3612
aI3643
aI3648
aI3656
aI3658
aI3659
aI3660
aI3661
aI3662
aI3664
aI3665
aI4005
aI4007
aI4009
aI4011
aI4016
aI4022
aI4023
aI4024
aI4025
aI4026
aI4030
aI4033
aI4034
aI4035
aI4040
aI4041
aI4047
aI4067
aI4073
aI4075
aI4079
aI4080
aI4081
aI4084
aI4085
aI4086
aI4087
aI4088
aI4092
aI4095
aI4099
aI4105
aI4106
aI4110
aI4115
aI4116
aI4117
aI4119
aI4121
aI4133
aI4148
aI4164
aI4165
aI4171
aI4172
aI4188
aI4189
aI4190
aI4191
aI4192
aI4193
aI4198
aI4200
aI4214
aI4229
aI4243
aI4245
aI4246
aI4250
aI4251
aI4252
aI4259
aI4260
aI4262
aI4264
aI4271
aI4278
aI4280
aI4281
aI4282
aI4292
aI4293
aI4296
aI4297
aI4299
aI4303
aI4304
aI4305
aI4306
aI4307
aI4308
aI4309
aI4310
aI4311
aI4314
aI4315
aI4317
aI4318
aI4320
aI4321
aI4322
aI4326
aI4327
aI4328
aI4336
aI4337
aI4338
aI4339
aI4340
aI4341
aI4343
aI4344
aI4345
aI4346
aI4349
aI4351
aI4352
aI4354
aI4355
aI4360
aI4361
aI4362
aI4363
aI4364
aI4365
aI4366
aI4367
aI4368
aI4369
aI4373
aI4380
aI4381
aI4382
aI4383
aI4387
aI4388
aI4396
aI4399
aI4400
aI4401
aI4402
aI4403
aI4416
aI4417
aI4418
aI4425
aI4429
aI4504
aI4511
aI4523
aI4524
aI4526
aI4527
aI4528
aI4559
aI4598
aI4605
aI4626
aI4627
aI4628
aI4629
aI4631
aI4634
aI5133
aI5135
aI5136
aI5153
aI5154
aI5166
aI5167
aI5183
aI5187
aI5211
aI5215
aI5229
aI5254
aI5271
aI5289
aI5290
aI5294
aI5295
aI5296
aI5316
aI5317
aI5318
aI5320
aI5324
aI5325
aI5327
aI5331
aI5332
aI5333
aI5335
aI5336
aI5345
aI5347
aI5359
aI5365
aI5366
aI5367
aI5368
aI5370
aI5372
aI5373
aI5374
aI5375
aI5376
aI5377
aI5390
aI5392
aI5424
aI5425
aI5426
aI5427
aI5435
aI5442
aI5443
aI5448
aI5449
aI5450
aI5451
aI5459
aI5466
aI5472
aI5476
aI5480
aI5482
aI5487
aI5489
aI5496
aI5497
aI5498
aI5499
aI5500
aI5507
aI5508
aI5509
aI5510
aI5512
aI5513
aI5514
aI5516
aI5517
aI5518
aI5521
aI5523
aI5526
aI5536
asS'75'
p51
(lp52
I112
aI113
aI115
aI141
aI497
aI830
aI840
aI975
aI1100
aI1200
aI1624
aI1639
aI1644
aI1652
aI1658
aI1659
aI1682
aI1712
aI1714
aI1720
aI1722
aI1803
aI1821
aI1828
aI2026
aI2061
aI2341
aI2493
aI2502
aI2519
aI2521
aI2523
aI2524
aI2527
aI2529
aI2567
aI2816
aI2827
aI2844
aI2895
aI2897
aI2906
aI2911
aI3429
aI3472
aI3536
aI3539
aI3540
aI3543
aI3544
aI3618
aI3644
aI3658
aI3664
aI4005
aI4016
aI4024
aI4025
aI4026
aI4030
aI4031
aI4038
aI4040
aI4041
aI4047
aI4087
aI4092
aI4099
aI4112
aI4133
aI4148
aI4159
aI4176
aI4183
aI4184
aI4185
aI4188
aI4189
aI4190
aI4192
aI4193
aI4194
aI4200
aI4206
aI4209
aI4216
aI4217
aI4229
aI4237
aI4241
aI4242
aI4250
aI4251
aI4252
aI4255
aI4257
aI4271
aI4276
aI4280
aI4281
aI4287
aI4288
aI4293
aI4303
aI4305
aI4306
aI4308
aI4309
aI4310
aI4311
aI4314
aI4315
aI4318
aI4320
aI4322
aI4323
aI4324
aI4325
aI4326
aI4327
aI4328
aI4331
aI4336
aI4337
aI4338
aI4340
aI4343
aI4346
aI4349
aI4351
aI4353
aI4354
aI4355
aI4360
aI4361
aI4362
aI4363
aI4364
aI4365
aI4366
aI4367
aI4368
aI4369
aI4373
aI4376
aI4378
aI4380
aI4382
aI4383
aI4387
aI4396
aI4399
aI4400
aI4401
aI4402
aI4419
aI4421
aI4422
aI4424
aI4425
aI4518
aI4520
aI4524
aI4529
aI4571
aI4598
aI4627
aI4628
aI4639
aI5133
aI5136
aI5166
aI5187
aI5211
aI5289
aI5294
aI5296
aI5312
aI5316
aI5317
aI5319
aI5320
aI5324
aI5325
aI5327
aI5331
aI5333
aI5343
aI5344
aI5345
aI5359
aI5374
aI5392
aI5424
aI5425
aI5426
aI5427
aI5432
aI5435
aI5436
aI5441
aI5442
aI5443
aI5446
aI5466
aI5468
aI5472
aI5474
aI5476
aI5480
aI5482
aI5484
aI5496
aI5497
aI5498
aI5500
aI5501
aI5503
aI5504
aI5507
aI5508
aI5518
aI5524
aI5526
aI112
aI113
aI115
aI116
aI125
aI141
aI547
aI621
aI792
aI958
aI1028
aI1100
aI1200
aI1273
aI1276
aI1308
aI1431
aI1474
aI1613
aI1624
aI1627
aI1639
aI1644
aI1659
aI1682
aI1698
aI1706
aI1714
aI1722
aI1743
aI1821
aI1879
aI2061
aI2263
aI2328
aI2341
aI2372
aI2492
aI2493
aI2502
aI2519
aI2521
aI2523
aI2524
aI2527
aI2529
aI2567
aI2668
aI2688
aI2805
aI2820
aI2827
aI2857
aI2858
aI2859
aI2860
aI2888
aI2895
aI2902
aI2905
aI2906
aI2919
aI3350
aI3352
aI3429
aI3477
aI3528
aI3536
aI3539
aI3540
aI3569
aI3654
aI3658
aI4002
aI4006
aI4009
aI4016
aI4022
aI4023
aI4024
aI4025
aI4026
aI4040
aI4041
aI4047
aI4075
aI4087
aI4092
aI4095
aI4099
aI4110
aI4119
aI4121
aI4133
aI4148
aI4161
aI4172
aI4188
aI4190
aI4192
aI4204
aI4214
aI4237
aI4241
aI4243
aI4251
aI4252
aI4254
aI4257
aI4259
aI4260
aI4264
aI4272
aI4276
aI4277
aI4278
aI4280
aI4281
aI4283
aI4296
aI4297
aI4303
aI4304
aI4305
aI4306
aI4308
aI4309
aI4310
aI4311
aI4314
aI4315
aI4317
aI4318
aI4320
aI4321
aI4322
aI4323
aI4324
aI4325
aI4326
aI4327
aI4329
aI4331
aI4336
aI4337
aI4338
aI4339
aI4340
aI4343
aI4345
aI4346
aI4348
aI4349
aI4351
aI4352
aI4354
aI4360
aI4362
aI4363
aI4364
aI4365
aI4366
aI4367
aI4368
aI4369
aI4376
aI4377
aI4378
aI4380
aI4381
aI4382
aI4383
aI4387
aI4388
aI4389
aI4390
aI4396
aI4398
aI4401
aI4402
aI4407
aI4415
aI4417
aI4418
aI4425
aI4428
aI4429
aI4518
aI4520
aI4523
aI4524
aI4526
aI4528
aI4559
aI4598
aI4626
aI4627
aI4629
aI4631
aI5133
aI5136
aI5145
aI5153
aI5154
aI5166
aI5167
aI5168
aI5187
aI5211
aI5271
aI5294
aI5295
aI5296
aI5312
aI5316
aI5317
aI5318
aI5319
aI5320
aI5331
aI5332
aI5333
aI5334
aI5335
aI5345
aI5347
aI5348
aI5359
aI5374
aI5390
aI5392
aI5424
aI5425
aI5427
aI5435
aI5442
aI5443
aI5466
aI5468
aI5474
aI5476
aI5480
aI5482
aI5484
aI5487
aI5489
aI5496
aI5497
aI5498
aI5499
aI5500
aI5503
aI5507
aI5510
aI5517
aI5526
aI5535
aI5536
aI112
aI115
aI116
aI125
aI127
aI141
aI367
aI369
aI497
aI522
aI621
aI792
aI840
aI958
aI976
aI1028
aI1200
aI1273
aI1276
aI1299
aI1300
aI1308
aI1474
aI1477
aI1595
aI1613
aI1644
aI1658
aI1659
aI1682
aI1706
aI1714
aI1722
aI1743
aI1812
aI1879
aI1956
aI1980
aI2008
aI2023
aI2026
aI2061
aI2142
aI2263
aI2292
aI2293
aI2313
aI2326
aI2328
aI2341
aI2342
aI2347
aI2492
aI2502
aI2519
aI2521
aI2523
aI2525
aI2526
aI2527
aI2529
aI2533
aI2575
aI2606
aI2668
aI2681
aI2688
aI2805
aI2816
aI2827
aI2844
aI2847
aI2856
aI2858
aI2859
aI2860
aI2863
aI2865
aI2880
aI2891
aI2895
aI2902
aI2905
aI2911
aI2919
aI3350
aI3352
aI3429
aI3472
aI3477
aI3528
aI3536
aI3539
aI3540
aI3542
aI3543
aI3569
aI3610
aI3612
aI3648
aI3658
aI3662
aI3664
aI4002
aI4005
aI4022
aI4023
aI4024
aI4025
aI4026
aI4027
aI4029
aI4030
aI4031
aI4033
aI4038
aI4040
aI4041
aI4047
aI4086
aI4087
aI4088
aI4092
aI4095
aI4099
aI4105
aI4110
aI4112
aI4113
aI4116
aI4117
aI4121
aI4164
aI4165
aI4172
aI4183
aI4206
aI4214
aI4217
aI4223
aI4241
aI4243
aI4252
aI4254
aI4255
aI4259
aI4262
aI4263
aI4271
aI4272
aI4276
aI4277
aI4280
aI4281
aI4283
aI4292
aI4293
aI4295
aI4296
aI4297
aI4299
aI4303
aI4305
aI4306
aI4307
aI4308
aI4318
aI4321
aI4328
aI4349
aI4352
aI4353
aI4362
aI4363
aI4365
aI4366
aI4368
aI4376
aI4387
aI4393
aI4396
aI4401
aI4407
aI4414
aI4415
aI4417
aI4418
aI4504
aI4510
aI4515
aI4528
aI4543
aI4554
aI4555
aI4559
aI4571
aI4617
aI4626
aI4627
aI4628
aI4639
aI5133
aI5145
aI5153
aI5154
aI5166
aI5167
aI5168
aI5182
aI5289
aI5290
aI5294
aI5295
aI5296
aI5312
aI5316
aI5317
aI5318
aI5320
aI5325
aI5331
aI5332
aI5333
aI5334
aI5335
aI5344
aI5345
aI5347
aI5348
aI5359
aI5390
aI5391
aI5424
aI5425
aI5426
aI5427
aI5435
aI5438
aI5441
aI5442
aI5443
aI5446
aI5448
aI5449
aI5450
aI5466
aI5474
aI5476
aI5480
aI5482
aI5484
aI5489
aI5495
aI5496
aI5497
aI5498
aI5501
aI5507
aI5510
aI5513
aI5516
aI5526
aI5535
aI5536
aI5537
asS'116'
p53
(lp54
I112
aI113
aI115
aI116
aI122
aI125
aI127
aI134
aI135
aI141
aI192
aI265
aI296
aI355
aI361
aI367
aI369
aI447
aI485
aI491
aI497
aI499
aI500
aI511
aI522
aI528
aI547
aI584
aI621
aI792
aI807
aI808
aI830
aI840
aI910
aI958
aI975
aI976
aI1028
aI1100
aI1200
aI1224
aI1239
aI1264
aI1273
aI1274
aI1276
aI1299
aI1300
aI1303
aI1308
aI1431
aI1432
aI1473
aI1474
aI1489
aI1563
aI1564
aI1595
aI1613
aI1620
aI1624
aI1627
aI1639
aI1644
aI1651
aI1652
aI1659
aI1682
aI1698
aI1704
aI1706
aI1708
aI1711
aI1712
aI1714
aI1715
aI1720
aI1722
aI1727
aI1728
aI1743
aI1811
aI1812
aI1821
aI1828
aI1832
aI1833
aI1879
aI1885
aI1889
aI1937
aI1938
aI1950
aI1956
aI1958
aI1980
aI2007
aI2008
aI2012
aI2019
aI2020
aI2023
aI2026
aI2061
aI2074
aI2103
aI2128
aI2142
aI2147
aI2263
aI2292
aI2293
aI2326
aI2328
aI2341
aI2342
aI2347
aI2372
aI2377
aI2380
aI2383
aI2478
aI2480
aI2485
aI2486
aI2492
aI2493
aI2502
aI2519
aI2520
aI2521
aI2523
aI2524
aI2525
aI2526
aI2527
aI2529
aI2533
aI2574
aI2576
aI2577
aI2589
aI2592
aI2594
aI2596
aI2599
aI2602
aI2644
aI2668
aI2671
aI2672
aI2678
aI2679
aI2680
aI2681
aI2684
aI2687
aI2688
aI2689
aI2805
aI2806
aI2809
aI2812
aI2814
aI2815
aI2816
aI2820
aI2822
aI2823
aI2826
aI2827
aI2829
aI2832
aI2834
aI2835
aI2842
aI2844
aI2847
aI2850
aI2851
aI2853
aI2856
aI2857
aI2858
aI2859
aI2860
aI2862
aI2863
aI2868
aI2880
aI2882
aI2883
aI2884
aI2886
aI2888
aI2890
aI2891
aI2892
aI2894
aI2895
aI2897
aI2899
aI2900
aI2902
aI2905
aI2906
aI2907
aI2910
aI2911
aI2912
aI2913
aI2914
aI2919
aI3308
aI3310
aI3311
aI3350
aI3351
aI3352
aI3359
aI3364
aI3365
aI3418
aI3429
aI3436
aI3439
aI3472
aI3476
aI3477
aI3527
aI3528
aI3536
aI3539
aI3540
aI3541
aI3542
aI3543
aI3544
aI3557
aI3569
aI3577
aI3582
aI3584
aI3597
aI3601
aI3602
aI3609
aI3610
aI3612
aI3618
aI3644
aI3646
aI3647
aI3648
aI3658
aI3659
aI3660
aI3661
aI3662
aI3664
aI3665
aI4002
aI4005
aI4006
aI4007
aI4009
aI4010
aI4011
aI4016
aI4017
aI4018
aI4019
aI4022
aI4023
aI4024
aI4025
aI4026
aI4027
aI4028
aI4029
aI4030
aI4031
aI4032
aI4033
aI4034
aI4035
aI4036
aI4038
aI4040
aI4041
aI4042
aI4044
aI4045
aI4047
aI4050
aI4059
aI4067
aI4071
aI4073
aI4075
aI4079
aI4080
aI4081
aI4082
aI4083
aI4084
aI4085
aI4086
aI4087
aI4088
aI4089
aI4091
aI4092
aI4095
aI4099
aI4104
aI4105
aI4106
aI4110
aI4112
aI4113
aI4115
aI4116
aI4117
aI4118
aI4119
aI4121
aI4123
aI4159
aI4160
aI4161
aI4164
aI4165
aI4169
aI4170
aI4171
aI4172
aI4175
aI4176
aI4177
aI4178
aI4180
aI4182
aI4183
aI4184
aI4185
aI4188
aI4189
aI4190
aI4192
aI4193
aI4198
aI4199
aI4200
aI4204
aI4206
aI4207
aI4208
aI4209
aI4213
aI4214
aI4216
aI4217
aI4223
aI4229
aI4233
aI4237
aI4241
aI4242
aI4243
aI4245
aI4246
aI4250
aI4251
aI4252
aI4254
aI4255
aI4257
aI4259
aI4260
aI4263
aI4264
aI4267
aI4272
aI4276
aI4277
aI4278
aI4280
aI4281
aI4282
aI4283
aI4285
aI4286
aI4289
aI4292
aI4293
aI4295
aI4296
aI4299
aI4303
aI4304
aI4305
aI4308
aI4310
aI4311
aI4314
aI4315
aI4317
aI4318
aI4320
aI4321
aI4323
aI4324
aI4325
aI4326
aI4327
aI4328
aI4329
aI4330
aI4331
aI4336
aI4337
aI4338
aI4339
aI4340
aI4341
aI4343
aI4344
aI4345
aI4346
aI4348
aI4349
aI4351
aI4352
aI4353
aI4354
aI4360
aI4361
aI4362
aI4363
aI4364
aI4365
aI4366
aI4369
aI4373
aI4376
aI4377
aI4378
aI4379
aI4380
aI4381
aI4382
aI4383
aI4387
aI4388
aI4390
aI4391
aI4392
aI4393
aI4396
aI4397
aI4398
aI4399
aI4400
aI4401
aI4402
aI4403
aI4404
aI4405
aI4407
aI4410
aI4412
aI4414
aI4415
aI4416
aI4417
aI4418
aI4423
aI4424
aI4425
aI4426
aI4428
aI4429
aI4504
aI4510
aI4511
aI4513
aI4514
aI4515
aI4518
aI4520
aI4523
aI4524
aI4526
aI4527
aI4528
aI4529
aI4543
aI4551
aI4554
aI4555
aI4556
aI4559
aI4562
aI4569
aI4571
aI4596
aI4598
aI4600
aI4601
aI4602
aI4603
aI4604
aI4605
aI4606
aI4607
aI4609
aI4611
aI4612
aI4613
aI4616
aI4617
aI4619
aI4620
aI4621
aI4622
aI4624
aI4625
aI4626
aI4627
aI4628
aI4629
aI4631
aI4634
aI4639
aI5114
aI5133
aI5135
aI5136
aI5145
aI5153
aI5154
aI5166
aI5167
aI5168
aI5182
aI5183
aI5187
aI5211
aI5215
aI5225
aI5229
aI5254
aI5271
aI5289
aI5292
aI5294
aI5295
aI5296
aI5312
aI5316
aI5317
aI5318
aI5319
aI5320
aI5324
aI5325
aI5327
aI5331
aI5332
aI5333
aI5334
aI5335
aI5336
aI5343
aI5345
aI5346
aI5347
aI5348
aI5350
aI5359
aI5365
aI5366
aI5367
aI5368
aI5369
aI5370
aI5372
aI5373
aI5374
aI5375
aI5376
aI5377
aI5390
aI5391
aI5392
aI5419
aI5422
aI5423
aI5424
aI5425
aI5426
aI5427
aI5430
aI5431
aI5432
aI5434
aI5435
aI5436
aI5437
aI5438
aI5439
aI5441
aI5442
aI5443
aI5445
aI5446
aI5448
aI5449
aI5451
aI5459
aI5466
aI5468
aI5470
aI5472
aI5474
aI5476
aI5478
aI5480
aI5482
aI5484
aI5487
aI5489
aI5495
aI5496
aI5497
aI5498
aI5499
aI5500
aI5501
aI5502
aI5503
aI5504
aI5505
aI5507
aI5509
aI5510
aI5512
aI5513
aI5514
aI5516
aI5517
aI5518
aI5520
aI5523
aI5524
aI5525
aI5526
aI5528
aI5531
aI5534
aI5535
aI5537
aI5543
as.